
temp.out:     file format elf32-littleriscv


Disassembly of section .text:

00001000 <_start>:
    1000:	00023117          	auipc	sp,0x23
    1004:	00010113          	mv	sp,sp
    1008:	00020297          	auipc	t0,0x20
    100c:	04828293          	addi	t0,t0,72 # 21050 <UART_BUF_TX>
    1010:	00021317          	auipc	t1,0x21
    1014:	ff030313          	addi	t1,t1,-16 # 22000 <_end>
    1018:	00628863          	beq	t0,t1,1028 <_start+0x28>
    101c:	0002a023          	sw	zero,0(t0)
    1020:	00428293          	addi	t0,t0,4
    1024:	fe629ce3          	bne	t0,t1,101c <_start+0x1c>
    1028:	659010ef          	jal	2e80 <disable_UART_interrupt>
    102c:	3d9010ef          	jal	2c04 <_io_init>
    1030:	5b5010ef          	jal	2de4 <enable_BUTTON_interrupt>
    1034:	508010ef          	jal	253c <main>
    1038:	551010ef          	jal	2d88 <_io_fini>
    103c:	10500073          	wfi
    1040:	fc1ff06f          	j	1000 <_start>

Disassembly of section .text:

00001044 <get_valid_key>:
    1044:	ff010113          	addi	sp,sp,-16 # 23ff0 <_end+0x1ff0>
    1048:	00112623          	sw	ra,12(sp)
    104c:	00812423          	sw	s0,8(sp)
    1050:	05200413          	li	s0,82
    1054:	381010ef          	jal	2bd4 <_io_getch>
    1058:	04a46c63          	bltu	s0,a0,10b0 <get_valid_key+0x6c>
    105c:	03c00793          	li	a5,60
    1060:	02a7ea63          	bltu	a5,a0,1094 <get_valid_key+0x50>
    1064:	00800793          	li	a5,8
    1068:	06f50663          	beq	a0,a5,10d4 <get_valid_key+0x90>
    106c:	fdb50713          	addi	a4,a0,-37
    1070:	0ff77713          	zext.b	a4,a4
    1074:	01400793          	li	a5,20
    1078:	fce7eee3          	bltu	a5,a4,1054 <get_valid_key+0x10>
    107c:	002007b7          	lui	a5,0x200
    1080:	f6178793          	addi	a5,a5,-159 # 1fff61 <stack_bot+0x1dbf61>
    1084:	00e7d7b3          	srl	a5,a5,a4
    1088:	0017f793          	andi	a5,a5,1
    108c:	04079463          	bnez	a5,10d4 <get_valid_key+0x90>
    1090:	fc5ff06f          	j	1054 <get_valid_key+0x10>
    1094:	fc350713          	addi	a4,a0,-61
    1098:	002a07b7          	lui	a5,0x2a0
    109c:	0c178793          	addi	a5,a5,193 # 2a00c1 <stack_bot+0x27c0c1>
    10a0:	00e7d7b3          	srl	a5,a5,a4
    10a4:	0017f793          	andi	a5,a5,1
    10a8:	fa0786e3          	beqz	a5,1054 <get_valid_key+0x10>
    10ac:	0280006f          	j	10d4 <get_valid_key+0x90>
    10b0:	f9d50713          	addi	a4,a0,-99
    10b4:	0ff77713          	zext.b	a4,a4
    10b8:	00f00793          	li	a5,15
    10bc:	f8e7ece3          	bltu	a5,a4,1054 <get_valid_key+0x10>
    10c0:	0000b7b7          	lui	a5,0xb
    10c4:	80378793          	addi	a5,a5,-2045 # a803 <__modsi3+0x63d3>
    10c8:	00e7d7b3          	srl	a5,a5,a4
    10cc:	0017f793          	andi	a5,a5,1
    10d0:	f80782e3          	beqz	a5,1054 <get_valid_key+0x10>
    10d4:	00c12083          	lw	ra,12(sp)
    10d8:	00812403          	lw	s0,8(sp)
    10dc:	01010113          	addi	sp,sp,16
    10e0:	00008067          	ret

000010e4 <update_flag>:
    10e4:	fd250793          	addi	a5,a0,-46
    10e8:	0017b793          	seqz	a5,a5
    10ec:	00f58023          	sb	a5,0(a1)
    10f0:	fd050793          	addi	a5,a0,-48
    10f4:	0017b793          	seqz	a5,a5
    10f8:	00f580a3          	sb	a5,1(a1)
    10fc:	fcf50793          	addi	a5,a0,-49
    1100:	0ff7f793          	zext.b	a5,a5
    1104:	0097b793          	sltiu	a5,a5,9
    1108:	00f58123          	sb	a5,2(a1)
    110c:	fdb50713          	addi	a4,a0,-37
    1110:	0ff77713          	zext.b	a4,a4
    1114:	00a00793          	li	a5,10
    1118:	06e7e863          	bltu	a5,a4,1188 <update_flag+0xa4>
    111c:	56100793          	li	a5,1377
    1120:	00e7d7b3          	srl	a5,a5,a4
    1124:	0017f793          	andi	a5,a5,1
    1128:	0a078063          	beqz	a5,11c8 <update_flag+0xe4>
    112c:	00100793          	li	a5,1
    1130:	00f581a3          	sb	a5,3(a1)
    1134:	00058223          	sb	zero,4(a1)
    1138:	f9d50793          	addi	a5,a0,-99
    113c:	0017b793          	seqz	a5,a5
    1140:	00f582a3          	sb	a5,5(a1)
    1144:	ff850793          	addi	a5,a0,-8
    1148:	0017b793          	seqz	a5,a5
    114c:	00f58323          	sb	a5,6(a1)
    1150:	000583a3          	sb	zero,7(a1)
    1154:	0df57793          	andi	a5,a0,223
    1158:	04e00713          	li	a4,78
    115c:	04e79a63          	bne	a5,a4,11b0 <update_flag+0xcc>
    1160:	00100793          	li	a5,1
    1164:	00f58423          	sb	a5,8(a1)
    1168:	000584a3          	sb	zero,9(a1)
    116c:	05200713          	li	a4,82
    1170:	00100793          	li	a5,1
    1174:	00e50663          	beq	a0,a4,1180 <update_flag+0x9c>
    1178:	f8e50793          	addi	a5,a0,-114
    117c:	0017b793          	seqz	a5,a5
    1180:	00f58523          	sb	a5,10(a1)
    1184:	00008067          	ret
    1188:	000581a3          	sb	zero,3(a1)
    118c:	fc350793          	addi	a5,a0,-61
    1190:	0017b793          	seqz	a5,a5
    1194:	00f58223          	sb	a5,4(a1)
    1198:	04300793          	li	a5,67
    119c:	02f51e63          	bne	a0,a5,11d8 <update_flag+0xf4>
    11a0:	00100793          	li	a5,1
    11a4:	00f582a3          	sb	a5,5(a1)
    11a8:	00058323          	sb	zero,6(a1)
    11ac:	000583a3          	sb	zero,7(a1)
    11b0:	00058423          	sb	zero,8(a1)
    11b4:	04400793          	li	a5,68
    11b8:	04f51863          	bne	a0,a5,1208 <update_flag+0x124>
    11bc:	00100793          	li	a5,1
    11c0:	00f584a3          	sb	a5,9(a1)
    11c4:	fb5ff06f          	j	1178 <update_flag+0x94>
    11c8:	000581a3          	sb	zero,3(a1)
    11cc:	fc350793          	addi	a5,a0,-61
    11d0:	0017b793          	seqz	a5,a5
    11d4:	00f58223          	sb	a5,4(a1)
    11d8:	f9d50793          	addi	a5,a0,-99
    11dc:	0017b793          	seqz	a5,a5
    11e0:	00f582a3          	sb	a5,5(a1)
    11e4:	ff850793          	addi	a5,a0,-8
    11e8:	0017b793          	seqz	a5,a5
    11ec:	00f58323          	sb	a5,6(a1)
    11f0:	0df57793          	andi	a5,a0,223
    11f4:	05000713          	li	a4,80
    11f8:	f4e79ce3          	bne	a5,a4,1150 <update_flag+0x6c>
    11fc:	00100793          	li	a5,1
    1200:	00f583a3          	sb	a5,7(a1)
    1204:	00058423          	sb	zero,8(a1)
    1208:	06400793          	li	a5,100
    120c:	f4f51ee3          	bne	a0,a5,1168 <update_flag+0x84>
    1210:	00100793          	li	a5,1
    1214:	00f584a3          	sb	a5,9(a1)
    1218:	f61ff06f          	j	1178 <update_flag+0x94>

0000121c <calc_result>:
    121c:	fd010113          	addi	sp,sp,-48
    1220:	02112623          	sw	ra,44(sp)
    1224:	02812423          	sw	s0,40(sp)
    1228:	02912223          	sw	s1,36(sp)
    122c:	03212023          	sw	s2,32(sp)
    1230:	01312e23          	sw	s3,28(sp)
    1234:	01412c23          	sw	s4,24(sp)
    1238:	01512a23          	sw	s5,20(sp)
    123c:	01612823          	sw	s6,16(sp)
    1240:	01712623          	sw	s7,12(sp)
    1244:	00050993          	mv	s3,a0
    1248:	00852503          	lw	a0,8(a0)
    124c:	41f55593          	srai	a1,a0,0x1f
    1250:	0109aa03          	lw	s4,16(s3)
    1254:	41fa5a93          	srai	s5,s4,0x1f
    1258:	00c9ab83          	lw	s7,12(s3)
    125c:	0149ab03          	lw	s6,20(s3)
    1260:	000b8693          	mv	a3,s7
    1264:	016bd463          	bge	s7,s6,126c <calc_result+0x50>
    1268:	000b0693          	mv	a3,s6
    126c:	0189c603          	lbu	a2,24(s3)
    1270:	fdb60793          	addi	a5,a2,-37
    1274:	0ff7f813          	zext.b	a6,a5
    1278:	00a00713          	li	a4,10
    127c:	0f076863          	bltu	a4,a6,136c <calc_result+0x150>
    1280:	00281793          	slli	a5,a6,0x2
    1284:	00020737          	lui	a4,0x20
    1288:	00070713          	mv	a4,a4
    128c:	00e787b3          	add	a5,a5,a4
    1290:	0007a783          	lw	a5,0(a5)
    1294:	00078067          	jr	a5
    1298:	076bd063          	bge	s7,s6,12f8 <calc_result+0xdc>
    129c:	01e55793          	srli	a5,a0,0x1e
    12a0:	00259713          	slli	a4,a1,0x2
    12a4:	00e7e733          	or	a4,a5,a4
    12a8:	00251793          	slli	a5,a0,0x2
    12ac:	00a78533          	add	a0,a5,a0
    12b0:	00f537b3          	sltu	a5,a0,a5
    12b4:	00b70733          	add	a4,a4,a1
    12b8:	00e787b3          	add	a5,a5,a4
    12bc:	01f55593          	srli	a1,a0,0x1f
    12c0:	00179793          	slli	a5,a5,0x1
    12c4:	00151513          	slli	a0,a0,0x1
    12c8:	00f5e5b3          	or	a1,a1,a5
    12cc:	001b8b93          	addi	s7,s7,1
    12d0:	fcdbc6e3          	blt	s7,a3,129c <calc_result+0x80>
    12d4:	02b00793          	li	a5,43
    12d8:	06f60063          	beq	a2,a5,1338 <calc_result+0x11c>
    12dc:	41450a33          	sub	s4,a0,s4
    12e0:	01453533          	sltu	a0,a0,s4
    12e4:	415585b3          	sub	a1,a1,s5
    12e8:	000a0413          	mv	s0,s4
    12ec:	40a584b3          	sub	s1,a1,a0
    12f0:	00068913          	mv	s2,a3
    12f4:	0780006f          	j	136c <calc_result+0x150>
    12f8:	fd7b5ee3          	bge	s6,s7,12d4 <calc_result+0xb8>
    12fc:	01ea5793          	srli	a5,s4,0x1e
    1300:	002a9713          	slli	a4,s5,0x2
    1304:	00e7e733          	or	a4,a5,a4
    1308:	002a1793          	slli	a5,s4,0x2
    130c:	01478a33          	add	s4,a5,s4
    1310:	00fa37b3          	sltu	a5,s4,a5
    1314:	01570733          	add	a4,a4,s5
    1318:	00e787b3          	add	a5,a5,a4
    131c:	01fa5a93          	srli	s5,s4,0x1f
    1320:	00179793          	slli	a5,a5,0x1
    1324:	001a1a13          	slli	s4,s4,0x1
    1328:	00faeab3          	or	s5,s5,a5
    132c:	001b0b13          	addi	s6,s6,1
    1330:	fcdb46e3          	blt	s6,a3,12fc <calc_result+0xe0>
    1334:	fa1ff06f          	j	12d4 <calc_result+0xb8>
    1338:	01450a33          	add	s4,a0,s4
    133c:	00aa3533          	sltu	a0,s4,a0
    1340:	015585b3          	add	a1,a1,s5
    1344:	000a0413          	mv	s0,s4
    1348:	00b504b3          	add	s1,a0,a1
    134c:	00068913          	mv	s2,a3
    1350:	01c0006f          	j	136c <calc_result+0x150>
    1354:	000a0613          	mv	a2,s4
    1358:	000a8693          	mv	a3,s5
    135c:	7c5020ef          	jal	4320 <__muldi3>
    1360:	00050413          	mv	s0,a0
    1364:	00058493          	mv	s1,a1
    1368:	016b8933          	add	s2,s7,s6
    136c:	0c095463          	bgez	s2,1434 <calc_result+0x218>
    1370:	01e45793          	srli	a5,s0,0x1e
    1374:	00249713          	slli	a4,s1,0x2
    1378:	00e7e733          	or	a4,a5,a4
    137c:	00241793          	slli	a5,s0,0x2
    1380:	00878433          	add	s0,a5,s0
    1384:	00f437b3          	sltu	a5,s0,a5
    1388:	00970733          	add	a4,a4,s1
    138c:	00e787b3          	add	a5,a5,a4
    1390:	01f45493          	srli	s1,s0,0x1f
    1394:	00179793          	slli	a5,a5,0x1
    1398:	00141413          	slli	s0,s0,0x1
    139c:	00f4e4b3          	or	s1,s1,a5
    13a0:	00190913          	addi	s2,s2,1
    13a4:	fc0916e3          	bnez	s2,1370 <calc_result+0x154>
    13a8:	00000913          	li	s2,0
    13ac:	0d204063          	bgtz	s2,146c <calc_result+0x250>
    13b0:	15c0006f          	j	150c <calc_result+0x2f0>
    13b4:	015a67b3          	or	a5,s4,s5
    13b8:	02078a63          	beqz	a5,13ec <calc_result+0x1d0>
    13bc:	00989637          	lui	a2,0x989
    13c0:	68060613          	addi	a2,a2,1664 # 989680 <stack_bot+0x965680>
    13c4:	00000693          	li	a3,0
    13c8:	759020ef          	jal	4320 <__muldi3>
    13cc:	000a0613          	mv	a2,s4
    13d0:	000a8693          	mv	a3,s5
    13d4:	394020ef          	jal	3768 <__divdi3>
    13d8:	00050413          	mv	s0,a0
    13dc:	00058493          	mv	s1,a1
    13e0:	416b8bb3          	sub	s7,s7,s6
    13e4:	007b8913          	addi	s2,s7,7
    13e8:	f85ff06f          	j	136c <calc_result+0x150>
    13ec:	00500793          	li	a5,5
    13f0:	00f9a023          	sw	a5,0(s3)
    13f4:	1440006f          	j	1538 <calc_result+0x31c>
    13f8:	015a67b3          	or	a5,s4,s5
    13fc:	02078063          	beqz	a5,141c <calc_result+0x200>
    1400:	02d04463          	bgtz	a3,1428 <calc_result+0x20c>
    1404:	000a0613          	mv	a2,s4
    1408:	000a8693          	mv	a3,s5
    140c:	16d020ef          	jal	3d78 <__moddi3>
    1410:	00050413          	mv	s0,a0
    1414:	00058493          	mv	s1,a1
    1418:	f91ff06f          	j	13a8 <calc_result+0x18c>
    141c:	00500793          	li	a5,5
    1420:	00f9a023          	sw	a5,0(s3)
    1424:	1140006f          	j	1538 <calc_result+0x31c>
    1428:	00500793          	li	a5,5
    142c:	00f9a023          	sw	a5,0(s3)
    1430:	1080006f          	j	1538 <calc_result+0x31c>
    1434:	00700793          	li	a5,7
    1438:	f727dae3          	bge	a5,s2,13ac <calc_result+0x190>
    143c:	00a00a13          	li	s4,10
    1440:	00000a93          	li	s5,0
    1444:	00078b13          	mv	s6,a5
    1448:	000a0613          	mv	a2,s4
    144c:	000a8693          	mv	a3,s5
    1450:	00040513          	mv	a0,s0
    1454:	00048593          	mv	a1,s1
    1458:	310020ef          	jal	3768 <__divdi3>
    145c:	00050413          	mv	s0,a0
    1460:	00058493          	mv	s1,a1
    1464:	fff90913          	addi	s2,s2,-1
    1468:	ff6910e3          	bne	s2,s6,1448 <calc_result+0x22c>
    146c:	00989b37          	lui	s6,0x989
    1470:	67fb0b13          	addi	s6,s6,1663 # 98967f <stack_bot+0x96567f>
    1474:	00a00a13          	li	s4,10
    1478:	00000a93          	li	s5,0
    147c:	01640733          	add	a4,s0,s6
    1480:	008737b3          	sltu	a5,a4,s0
    1484:	009787b3          	add	a5,a5,s1
    1488:	02078663          	beqz	a5,14b4 <calc_result+0x298>
    148c:	000a0613          	mv	a2,s4
    1490:	000a8693          	mv	a3,s5
    1494:	00040513          	mv	a0,s0
    1498:	00048593          	mv	a1,s1
    149c:	2cc020ef          	jal	3768 <__divdi3>
    14a0:	00050413          	mv	s0,a0
    14a4:	00058493          	mv	s1,a1
    14a8:	fff90913          	addi	s2,s2,-1
    14ac:	fc0918e3          	bnez	s2,147c <calc_result+0x260>
    14b0:	05c0006f          	j	150c <calc_result+0x2f0>
    14b4:	00079863          	bnez	a5,14c4 <calc_result+0x2a8>
    14b8:	013137b7          	lui	a5,0x1313
    14bc:	cfe78793          	addi	a5,a5,-770 # 1312cfe <stack_bot+0x12eecfe>
    14c0:	fce7e6e3          	bltu	a5,a4,148c <calc_result+0x270>
    14c4:	00a00a13          	li	s4,10
    14c8:	00000a93          	li	s5,0
    14cc:	000a0613          	mv	a2,s4
    14d0:	000a8693          	mv	a3,s5
    14d4:	00040513          	mv	a0,s0
    14d8:	00048593          	mv	a1,s1
    14dc:	09d020ef          	jal	3d78 <__moddi3>
    14e0:	00b56533          	or	a0,a0,a1
    14e4:	04051263          	bnez	a0,1528 <calc_result+0x30c>
    14e8:	000a0613          	mv	a2,s4
    14ec:	000a8693          	mv	a3,s5
    14f0:	00040513          	mv	a0,s0
    14f4:	00048593          	mv	a1,s1
    14f8:	270020ef          	jal	3768 <__divdi3>
    14fc:	00050413          	mv	s0,a0
    1500:	00058493          	mv	s1,a1
    1504:	fff90913          	addi	s2,s2,-1
    1508:	fc0912e3          	bnez	s2,14cc <calc_result+0x2b0>
    150c:	009897b7          	lui	a5,0x989
    1510:	67f78793          	addi	a5,a5,1663 # 98967f <stack_bot+0x96567f>
    1514:	00f407b3          	add	a5,s0,a5
    1518:	0087b733          	sltu	a4,a5,s0
    151c:	00970733          	add	a4,a4,s1
    1520:	04071863          	bnez	a4,1570 <calc_result+0x354>
    1524:	04070063          	beqz	a4,1564 <calc_result+0x348>
    1528:	0089a423          	sw	s0,8(s3)
    152c:	0129a623          	sw	s2,12(s3)
    1530:	0009a823          	sw	zero,16(s3)
    1534:	0009aa23          	sw	zero,20(s3)
    1538:	02c12083          	lw	ra,44(sp)
    153c:	02812403          	lw	s0,40(sp)
    1540:	02412483          	lw	s1,36(sp)
    1544:	02012903          	lw	s2,32(sp)
    1548:	01c12983          	lw	s3,28(sp)
    154c:	01812a03          	lw	s4,24(sp)
    1550:	01412a83          	lw	s5,20(sp)
    1554:	01012b03          	lw	s6,16(sp)
    1558:	00c12b83          	lw	s7,12(sp)
    155c:	03010113          	addi	sp,sp,48
    1560:	00008067          	ret
    1564:	01313737          	lui	a4,0x1313
    1568:	cfe70713          	addi	a4,a4,-770 # 1312cfe <stack_bot+0x12eecfe>
    156c:	faf77ee3          	bgeu	a4,a5,1528 <calc_result+0x30c>
    1570:	00500793          	li	a5,5
    1574:	00f9a023          	sw	a5,0(s3)
    1578:	fc1ff06f          	j	1538 <calc_result+0x31c>

0000157c <process_er>:
    157c:	0055c783          	lbu	a5,5(a1)
    1580:	04078463          	beqz	a5,15c8 <process_er+0x4c>
    1584:	000207b7          	lui	a5,0x20
    1588:	06c78793          	addi	a5,a5,108 # 2006c <DATA_START+0x6c>
    158c:	0007a883          	lw	a7,0(a5)
    1590:	0047a803          	lw	a6,4(a5)
    1594:	0087a503          	lw	a0,8(a5)
    1598:	00c7a583          	lw	a1,12(a5)
    159c:	0107a683          	lw	a3,16(a5)
    15a0:	0147a703          	lw	a4,20(a5)
    15a4:	0187a783          	lw	a5,24(a5)
    15a8:	01162023          	sw	a7,0(a2)
    15ac:	01062223          	sw	a6,4(a2)
    15b0:	00a62423          	sw	a0,8(a2)
    15b4:	00b62623          	sw	a1,12(a2)
    15b8:	00d62823          	sw	a3,16(a2)
    15bc:	00e62a23          	sw	a4,20(a2)
    15c0:	00f62c23          	sw	a5,24(a2)
    15c4:	00008067          	ret
    15c8:	00500793          	li	a5,5
    15cc:	00f62023          	sw	a5,0(a2)
    15d0:	00008067          	ret

000015d4 <print_setup>:
    15d4:	c8010113          	addi	sp,sp,-896
    15d8:	36112e23          	sw	ra,892(sp)
    15dc:	36812c23          	sw	s0,888(sp)
    15e0:	000207b7          	lui	a5,0x20
    15e4:	36878793          	addi	a5,a5,872 # 20368 <__clz_tab+0x100>
    15e8:	00c10713          	addi	a4,sp,12
    15ec:	36078693          	addi	a3,a5,864
    15f0:	0007a803          	lw	a6,0(a5)
    15f4:	0047a503          	lw	a0,4(a5)
    15f8:	0087a583          	lw	a1,8(a5)
    15fc:	00c7a603          	lw	a2,12(a5)
    1600:	01072023          	sw	a6,0(a4)
    1604:	00a72223          	sw	a0,4(a4)
    1608:	00b72423          	sw	a1,8(a4)
    160c:	00c72623          	sw	a2,12(a4)
    1610:	01078793          	addi	a5,a5,16
    1614:	01070713          	addi	a4,a4,16
    1618:	fcd79ce3          	bne	a5,a3,15f0 <print_setup+0x1c>
    161c:	0007c783          	lbu	a5,0(a5)
    1620:	00f70023          	sb	a5,0(a4)
    1624:	00c14503          	lbu	a0,12(sp)
    1628:	00050c63          	beqz	a0,1640 <print_setup+0x6c>
    162c:	00d10413          	addi	s0,sp,13
    1630:	574010ef          	jal	2ba4 <_io_putch>
    1634:	00140413          	addi	s0,s0,1
    1638:	fff44503          	lbu	a0,-1(s0)
    163c:	fe051ae3          	bnez	a0,1630 <print_setup+0x5c>
    1640:	37c12083          	lw	ra,892(sp)
    1644:	37812403          	lw	s0,888(sp)
    1648:	38010113          	addi	sp,sp,896
    164c:	00008067          	ret

00001650 <print_error>:
    1650:	fb010113          	addi	sp,sp,-80
    1654:	04112623          	sw	ra,76(sp)
    1658:	04812423          	sw	s0,72(sp)
    165c:	000207b7          	lui	a5,0x20
    1660:	6cc78793          	addi	a5,a5,1740 # 206cc <__clz_tab+0x464>
    1664:	00810713          	addi	a4,sp,8
    1668:	03078693          	addi	a3,a5,48
    166c:	0007a803          	lw	a6,0(a5)
    1670:	0047a503          	lw	a0,4(a5)
    1674:	0087a583          	lw	a1,8(a5)
    1678:	00c7a603          	lw	a2,12(a5)
    167c:	01072023          	sw	a6,0(a4)
    1680:	00a72223          	sw	a0,4(a4)
    1684:	00b72423          	sw	a1,8(a4)
    1688:	00c72623          	sw	a2,12(a4)
    168c:	01078793          	addi	a5,a5,16
    1690:	01070713          	addi	a4,a4,16
    1694:	fcd79ce3          	bne	a5,a3,166c <print_error+0x1c>
    1698:	0007a683          	lw	a3,0(a5)
    169c:	00d72023          	sw	a3,0(a4)
    16a0:	0047c783          	lbu	a5,4(a5)
    16a4:	00f70223          	sb	a5,4(a4)
    16a8:	00814503          	lbu	a0,8(sp)
    16ac:	00050c63          	beqz	a0,16c4 <print_error+0x74>
    16b0:	00910413          	addi	s0,sp,9
    16b4:	4f0010ef          	jal	2ba4 <_io_putch>
    16b8:	00140413          	addi	s0,s0,1
    16bc:	fff44503          	lbu	a0,-1(s0)
    16c0:	fe051ae3          	bnez	a0,16b4 <print_error+0x64>
    16c4:	04c12083          	lw	ra,76(sp)
    16c8:	04812403          	lw	s0,72(sp)
    16cc:	05010113          	addi	sp,sp,80
    16d0:	00008067          	ret

000016d4 <print_overflow>:
    16d4:	fc010113          	addi	sp,sp,-64
    16d8:	02112e23          	sw	ra,60(sp)
    16dc:	000207b7          	lui	a5,0x20
    16e0:	70478793          	addi	a5,a5,1796 # 20704 <__clz_tab+0x49c>
    16e4:	0007a503          	lw	a0,0(a5)
    16e8:	0047af03          	lw	t5,4(a5)
    16ec:	0087ae83          	lw	t4,8(a5)
    16f0:	00c7ae03          	lw	t3,12(a5)
    16f4:	0107a303          	lw	t1,16(a5)
    16f8:	0147a883          	lw	a7,20(a5)
    16fc:	0187a803          	lw	a6,24(a5)
    1700:	01c7a583          	lw	a1,28(a5)
    1704:	0207a603          	lw	a2,32(a5)
    1708:	0247a683          	lw	a3,36(a5)
    170c:	0287a703          	lw	a4,40(a5)
    1710:	02c7a783          	lw	a5,44(a5)
    1714:	00a12023          	sw	a0,0(sp)
    1718:	01e12223          	sw	t5,4(sp)
    171c:	01d12423          	sw	t4,8(sp)
    1720:	01c12623          	sw	t3,12(sp)
    1724:	00612823          	sw	t1,16(sp)
    1728:	01112a23          	sw	a7,20(sp)
    172c:	01012c23          	sw	a6,24(sp)
    1730:	00b12e23          	sw	a1,28(sp)
    1734:	02c12023          	sw	a2,32(sp)
    1738:	02d12223          	sw	a3,36(sp)
    173c:	02e12423          	sw	a4,40(sp)
    1740:	02f12623          	sw	a5,44(sp)
    1744:	0ff57513          	zext.b	a0,a0
    1748:	02050063          	beqz	a0,1768 <print_overflow+0x94>
    174c:	02812c23          	sw	s0,56(sp)
    1750:	00110413          	addi	s0,sp,1
    1754:	450010ef          	jal	2ba4 <_io_putch>
    1758:	00140413          	addi	s0,s0,1
    175c:	fff44503          	lbu	a0,-1(s0)
    1760:	fe051ae3          	bnez	a0,1754 <print_overflow+0x80>
    1764:	03812403          	lw	s0,56(sp)
    1768:	03c12083          	lw	ra,60(sp)
    176c:	04010113          	addi	sp,sp,64
    1770:	00008067          	ret

00001774 <display_error>:
    1774:	000217b7          	lui	a5,0x21
    1778:	0387a703          	lw	a4,56(a5) # 21038 <gpio>
    177c:	07900793          	li	a5,121
    1780:	00f72423          	sw	a5,8(a4)
    1784:	505067b7          	lui	a5,0x50506
    1788:	c5078793          	addi	a5,a5,-944 # 50505c50 <stack_bot+0x504e1c50>
    178c:	00f72223          	sw	a5,4(a4)
    1790:	00008067          	ret

00001794 <display_overflow>:
    1794:	000217b7          	lui	a5,0x21
    1798:	0387a703          	lw	a4,56(a5) # 21038 <gpio>
    179c:	5c1c87b7          	lui	a5,0x5c1c8
    17a0:	95078793          	addi	a5,a5,-1712 # 5c1c7950 <stack_bot+0x5c1a3950>
    17a4:	00f72423          	sw	a5,8(a4)
    17a8:	713867b7          	lui	a5,0x71386
    17ac:	cbe78793          	addi	a5,a5,-834 # 71385cbe <stack_bot+0x71361cbe>
    17b0:	00f72223          	sw	a5,4(a4)
    17b4:	00008067          	ret

000017b8 <display_num>:
    17b8:	fb010113          	addi	sp,sp,-80
    17bc:	04112623          	sw	ra,76(sp)
    17c0:	04812423          	sw	s0,72(sp)
    17c4:	04912223          	sw	s1,68(sp)
    17c8:	05212023          	sw	s2,64(sp)
    17cc:	03312e23          	sw	s3,60(sp)
    17d0:	03412c23          	sw	s4,56(sp)
    17d4:	03512a23          	sw	s5,52(sp)
    17d8:	03612823          	sw	s6,48(sp)
    17dc:	03712623          	sw	s7,44(sp)
    17e0:	03812423          	sw	s8,40(sp)
    17e4:	03912223          	sw	s9,36(sp)
    17e8:	03a12023          	sw	s10,32(sp)
    17ec:	00050b13          	mv	s6,a0
    17f0:	00058a13          	mv	s4,a1
    17f4:	00060c13          	mv	s8,a2
    17f8:	00012023          	sw	zero,0(sp)
    17fc:	00012223          	sw	zero,4(sp)
    1800:	00012423          	sw	zero,8(sp)
    1804:	00012623          	sw	zero,12(sp)
    1808:	00012823          	sw	zero,16(sp)
    180c:	00012a23          	sw	zero,20(sp)
    1810:	00012c23          	sw	zero,24(sp)
    1814:	00012e23          	sw	zero,28(sp)
    1818:	41f55793          	srai	a5,a0,0x1f
    181c:	00a7c4b3          	xor	s1,a5,a0
    1820:	40f484b3          	sub	s1,s1,a5
    1824:	00010b93          	mv	s7,sp
    1828:	00010913          	mv	s2,sp
    182c:	00000413          	li	s0,0
    1830:	00a00993          	li	s3,10
    1834:	00900c93          	li	s9,9
    1838:	00020ab7          	lui	s5,0x20
    183c:	00700d13          	li	s10,7
    1840:	02c0006f          	j	186c <display_num+0xb4>
    1844:	03f00793          	li	a5,63
    1848:	00f92023          	sw	a5,0(s2)
    184c:	00098593          	mv	a1,s3
    1850:	00048513          	mv	a0,s1
    1854:	359020ef          	jal	43ac <__divsi3>
    1858:	00050493          	mv	s1,a0
    185c:	08050263          	beqz	a0,18e0 <display_num+0x128>
    1860:	00140413          	addi	s0,s0,1
    1864:	00490913          	addi	s2,s2,4
    1868:	07a40c63          	beq	s0,s10,18e0 <display_num+0x128>
    186c:	00098593          	mv	a1,s3
    1870:	00048513          	mv	a0,s1
    1874:	3bd020ef          	jal	4430 <__modsi3>
    1878:	04acec63          	bltu	s9,a0,18d0 <display_num+0x118>
    187c:	00251513          	slli	a0,a0,0x2
    1880:	02ca8793          	addi	a5,s5,44 # 2002c <DATA_START+0x2c>
    1884:	00f50533          	add	a0,a0,a5
    1888:	00052783          	lw	a5,0(a0)
    188c:	00078067          	jr	a5
    1890:	05b00793          	li	a5,91
    1894:	fb5ff06f          	j	1848 <display_num+0x90>
    1898:	04f00793          	li	a5,79
    189c:	fadff06f          	j	1848 <display_num+0x90>
    18a0:	06600793          	li	a5,102
    18a4:	fa5ff06f          	j	1848 <display_num+0x90>
    18a8:	06d00793          	li	a5,109
    18ac:	f9dff06f          	j	1848 <display_num+0x90>
    18b0:	07d00793          	li	a5,125
    18b4:	f95ff06f          	j	1848 <display_num+0x90>
    18b8:	02700793          	li	a5,39
    18bc:	f8dff06f          	j	1848 <display_num+0x90>
    18c0:	07f00793          	li	a5,127
    18c4:	f85ff06f          	j	1848 <display_num+0x90>
    18c8:	06f00793          	li	a5,111
    18cc:	f7dff06f          	j	1848 <display_num+0x90>
    18d0:	00000793          	li	a5,0
    18d4:	f75ff06f          	j	1848 <display_num+0x90>
    18d8:	00600793          	li	a5,6
    18dc:	f6dff06f          	j	1848 <display_num+0x90>
    18e0:	03445263          	bge	s0,s4,1904 <display_num+0x14c>
    18e4:	00241793          	slli	a5,s0,0x2
    18e8:	017787b3          	add	a5,a5,s7
    18ec:	002a1713          	slli	a4,s4,0x2
    18f0:	01770733          	add	a4,a4,s7
    18f4:	03f00693          	li	a3,63
    18f8:	00d7a223          	sw	a3,4(a5)
    18fc:	00478793          	addi	a5,a5,4
    1900:	fee79ce3          	bne	a5,a4,18f8 <display_num+0x140>
    1904:	04000793          	li	a5,64
    1908:	000b4463          	bltz	s6,1910 <display_num+0x158>
    190c:	01c12783          	lw	a5,28(sp)
    1910:	00f12e23          	sw	a5,28(sp)
    1914:	0b405863          	blez	s4,19c4 <display_num+0x20c>
    1918:	002a1a13          	slli	s4,s4,0x2
    191c:	002a0a33          	add	s4,s4,sp
    1920:	000a2783          	lw	a5,0(s4)
    1924:	0807e793          	ori	a5,a5,128
    1928:	00fa2023          	sw	a5,0(s4)
    192c:	000217b7          	lui	a5,0x21
    1930:	0387a683          	lw	a3,56(a5) # 21038 <gpio>
    1934:	01c12783          	lw	a5,28(sp)
    1938:	01879793          	slli	a5,a5,0x18
    193c:	01812703          	lw	a4,24(sp)
    1940:	01071713          	slli	a4,a4,0x10
    1944:	00e7e7b3          	or	a5,a5,a4
    1948:	01012703          	lw	a4,16(sp)
    194c:	00e7e7b3          	or	a5,a5,a4
    1950:	01412703          	lw	a4,20(sp)
    1954:	00871713          	slli	a4,a4,0x8
    1958:	00e7e7b3          	or	a5,a5,a4
    195c:	00f6a423          	sw	a5,8(a3)
    1960:	00c12783          	lw	a5,12(sp)
    1964:	01879793          	slli	a5,a5,0x18
    1968:	00812703          	lw	a4,8(sp)
    196c:	01071713          	slli	a4,a4,0x10
    1970:	00e7e7b3          	or	a5,a5,a4
    1974:	00012703          	lw	a4,0(sp)
    1978:	00e7e7b3          	or	a5,a5,a4
    197c:	00412703          	lw	a4,4(sp)
    1980:	00871713          	slli	a4,a4,0x8
    1984:	00e7e7b3          	or	a5,a5,a4
    1988:	00f6a223          	sw	a5,4(a3)
    198c:	04c12083          	lw	ra,76(sp)
    1990:	04812403          	lw	s0,72(sp)
    1994:	04412483          	lw	s1,68(sp)
    1998:	04012903          	lw	s2,64(sp)
    199c:	03c12983          	lw	s3,60(sp)
    19a0:	03812a03          	lw	s4,56(sp)
    19a4:	03412a83          	lw	s5,52(sp)
    19a8:	03012b03          	lw	s6,48(sp)
    19ac:	02c12b83          	lw	s7,44(sp)
    19b0:	02812c03          	lw	s8,40(sp)
    19b4:	02412c83          	lw	s9,36(sp)
    19b8:	02012d03          	lw	s10,32(sp)
    19bc:	05010113          	addi	sp,sp,80
    19c0:	00008067          	ret
    19c4:	00200793          	li	a5,2
    19c8:	f6fc12e3          	bne	s8,a5,192c <display_num+0x174>
    19cc:	f60a10e3          	bnez	s4,192c <display_num+0x174>
    19d0:	00012783          	lw	a5,0(sp)
    19d4:	0807e793          	ori	a5,a5,128
    19d8:	00f12023          	sw	a5,0(sp)
    19dc:	f51ff06f          	j	192c <display_num+0x174>

000019e0 <update_display>:
    19e0:	ff010113          	addi	sp,sp,-16
    19e4:	00112623          	sw	ra,12(sp)
    19e8:	00052783          	lw	a5,0(a0)
    19ec:	00500713          	li	a4,5
    19f0:	02e78463          	beq	a5,a4,1a18 <update_display+0x38>
    19f4:	00400713          	li	a4,4
    19f8:	04e78a63          	beq	a5,a4,1a4c <update_display+0x6c>
    19fc:	00300713          	li	a4,3
    1a00:	06e78063          	beq	a5,a4,1a60 <update_display+0x80>
    1a04:	00200713          	li	a4,2
    1a08:	06f77663          	bgeu	a4,a5,1a74 <update_display+0x94>
    1a0c:	00c12083          	lw	ra,12(sp)
    1a10:	01010113          	addi	sp,sp,16
    1a14:	00008067          	ret
    1a18:	00452703          	lw	a4,4(a0)
    1a1c:	00500793          	li	a5,5
    1a20:	fef706e3          	beq	a4,a5,1a0c <update_display+0x2c>
    1a24:	00852703          	lw	a4,8(a0)
    1a28:	009897b7          	lui	a5,0x989
    1a2c:	68078793          	addi	a5,a5,1664 # 989680 <stack_bot+0x965680>
    1a30:	00f70863          	beq	a4,a5,1a40 <update_display+0x60>
    1a34:	c1dff0ef          	jal	1650 <print_error>
    1a38:	d3dff0ef          	jal	1774 <display_error>
    1a3c:	fd1ff06f          	j	1a0c <update_display+0x2c>
    1a40:	c95ff0ef          	jal	16d4 <print_overflow>
    1a44:	d51ff0ef          	jal	1794 <display_overflow>
    1a48:	fc5ff06f          	j	1a0c <update_display+0x2c>
    1a4c:	00452603          	lw	a2,4(a0)
    1a50:	00c52583          	lw	a1,12(a0)
    1a54:	00852503          	lw	a0,8(a0)
    1a58:	d61ff0ef          	jal	17b8 <display_num>
    1a5c:	fb1ff06f          	j	1a0c <update_display+0x2c>
    1a60:	00452603          	lw	a2,4(a0)
    1a64:	00c52583          	lw	a1,12(a0)
    1a68:	00852503          	lw	a0,8(a0)
    1a6c:	d4dff0ef          	jal	17b8 <display_num>
    1a70:	f9dff06f          	j	1a0c <update_display+0x2c>
    1a74:	00452603          	lw	a2,4(a0)
    1a78:	01452583          	lw	a1,20(a0)
    1a7c:	01052503          	lw	a0,16(a0)
    1a80:	d39ff0ef          	jal	17b8 <display_num>
    1a84:	f89ff06f          	j	1a0c <update_display+0x2c>

00001a88 <memory_add>:
    1a88:	ff010113          	addi	sp,sp,-16
    1a8c:	000217b7          	lui	a5,0x21
    1a90:	0047a603          	lw	a2,4(a5) # 21004 <memory+0x4>
    1a94:	04b60063          	beq	a2,a1,1ad4 <memory_add+0x4c>
    1a98:	0ab65663          	bge	a2,a1,1b44 <memory_add+0xbc>
    1a9c:	000217b7          	lui	a5,0x21
    1aa0:	0007a683          	lw	a3,0(a5) # 21000 <memory>
    1aa4:	40c58633          	sub	a2,a1,a2
    1aa8:	00000713          	li	a4,0
    1aac:	00269793          	slli	a5,a3,0x2
    1ab0:	00d787b3          	add	a5,a5,a3
    1ab4:	00179793          	slli	a5,a5,0x1
    1ab8:	00078693          	mv	a3,a5
    1abc:	00170713          	addi	a4,a4,1
    1ac0:	fec716e3          	bne	a4,a2,1aac <memory_add+0x24>
    1ac4:	00021737          	lui	a4,0x21
    1ac8:	00070713          	mv	a4,a4
    1acc:	00f72023          	sw	a5,0(a4) # 21000 <memory>
    1ad0:	00b72223          	sw	a1,4(a4)
    1ad4:	000217b7          	lui	a5,0x21
    1ad8:	00078793          	mv	a5,a5
    1adc:	0007a703          	lw	a4,0(a5) # 21000 <memory>
    1ae0:	00e50533          	add	a0,a0,a4
    1ae4:	00a7a023          	sw	a0,0(a5)
    1ae8:	0087a703          	lw	a4,8(a5)
    1aec:	00200793          	li	a5,2
    1af0:	04f70463          	beq	a4,a5,1b38 <memory_add+0xb0>
    1af4:	00b567b3          	or	a5,a0,a1
    1af8:	00100713          	li	a4,1
    1afc:	00078663          	beqz	a5,1b08 <memory_add+0x80>
    1b00:	00b02733          	sgtz	a4,a1
    1b04:	00171713          	slli	a4,a4,0x1
    1b08:	000217b7          	lui	a5,0x21
    1b0c:	00078793          	mv	a5,a5
    1b10:	00b7a223          	sw	a1,4(a5) # 21004 <memory+0x4>
    1b14:	00e7a423          	sw	a4,8(a5)
    1b18:	009897b7          	lui	a5,0x989
    1b1c:	67f78793          	addi	a5,a5,1663 # 98967f <stack_bot+0x96567f>
    1b20:	00f50533          	add	a0,a0,a5
    1b24:	013137b7          	lui	a5,0x1313
    1b28:	cff78793          	addi	a5,a5,-769 # 1312cff <stack_bot+0x12eecff>
    1b2c:	00f53533          	sltu	a0,a0,a5
    1b30:	01010113          	addi	sp,sp,16
    1b34:	00008067          	ret
    1b38:	000217b7          	lui	a5,0x21
    1b3c:	0047a583          	lw	a1,4(a5) # 21004 <memory+0x4>
    1b40:	fb5ff06f          	j	1af4 <memory_add+0x6c>
    1b44:	40b605b3          	sub	a1,a2,a1
    1b48:	00000793          	li	a5,0
    1b4c:	00251713          	slli	a4,a0,0x2
    1b50:	00a70533          	add	a0,a4,a0
    1b54:	00151513          	slli	a0,a0,0x1
    1b58:	00178793          	addi	a5,a5,1
    1b5c:	feb798e3          	bne	a5,a1,1b4c <memory_add+0xc4>
    1b60:	00060593          	mv	a1,a2
    1b64:	f71ff06f          	j	1ad4 <memory_add+0x4c>

00001b68 <memory_subtract>:
    1b68:	ff010113          	addi	sp,sp,-16
    1b6c:	000217b7          	lui	a5,0x21
    1b70:	0047a603          	lw	a2,4(a5) # 21004 <memory+0x4>
    1b74:	04b60063          	beq	a2,a1,1bb4 <memory_subtract+0x4c>
    1b78:	0ab65663          	bge	a2,a1,1c24 <memory_subtract+0xbc>
    1b7c:	000217b7          	lui	a5,0x21
    1b80:	0007a683          	lw	a3,0(a5) # 21000 <memory>
    1b84:	40c58633          	sub	a2,a1,a2
    1b88:	00000713          	li	a4,0
    1b8c:	00269793          	slli	a5,a3,0x2
    1b90:	00d787b3          	add	a5,a5,a3
    1b94:	00179793          	slli	a5,a5,0x1
    1b98:	00078693          	mv	a3,a5
    1b9c:	00170713          	addi	a4,a4,1
    1ba0:	fec716e3          	bne	a4,a2,1b8c <memory_subtract+0x24>
    1ba4:	00021737          	lui	a4,0x21
    1ba8:	00070713          	mv	a4,a4
    1bac:	00f72023          	sw	a5,0(a4) # 21000 <memory>
    1bb0:	00b72223          	sw	a1,4(a4)
    1bb4:	00021737          	lui	a4,0x21
    1bb8:	00070713          	mv	a4,a4
    1bbc:	00072783          	lw	a5,0(a4) # 21000 <memory>
    1bc0:	40a78533          	sub	a0,a5,a0
    1bc4:	00a72023          	sw	a0,0(a4)
    1bc8:	00872703          	lw	a4,8(a4)
    1bcc:	00200793          	li	a5,2
    1bd0:	04f70463          	beq	a4,a5,1c18 <memory_subtract+0xb0>
    1bd4:	00b567b3          	or	a5,a0,a1
    1bd8:	00100713          	li	a4,1
    1bdc:	00078663          	beqz	a5,1be8 <memory_subtract+0x80>
    1be0:	00b02733          	sgtz	a4,a1
    1be4:	00171713          	slli	a4,a4,0x1
    1be8:	000217b7          	lui	a5,0x21
    1bec:	00078793          	mv	a5,a5
    1bf0:	00b7a223          	sw	a1,4(a5) # 21004 <memory+0x4>
    1bf4:	00e7a423          	sw	a4,8(a5)
    1bf8:	009897b7          	lui	a5,0x989
    1bfc:	67f78793          	addi	a5,a5,1663 # 98967f <stack_bot+0x96567f>
    1c00:	00f50533          	add	a0,a0,a5
    1c04:	013137b7          	lui	a5,0x1313
    1c08:	cff78793          	addi	a5,a5,-769 # 1312cff <stack_bot+0x12eecff>
    1c0c:	00f53533          	sltu	a0,a0,a5
    1c10:	01010113          	addi	sp,sp,16
    1c14:	00008067          	ret
    1c18:	000217b7          	lui	a5,0x21
    1c1c:	0047a583          	lw	a1,4(a5) # 21004 <memory+0x4>
    1c20:	fb5ff06f          	j	1bd4 <memory_subtract+0x6c>
    1c24:	40b605b3          	sub	a1,a2,a1
    1c28:	00000793          	li	a5,0
    1c2c:	00251713          	slli	a4,a0,0x2
    1c30:	00a70533          	add	a0,a4,a0
    1c34:	00151513          	slli	a0,a0,0x1
    1c38:	00178793          	addi	a5,a5,1
    1c3c:	feb798e3          	bne	a5,a1,1c2c <memory_subtract+0xc4>
    1c40:	00060593          	mv	a1,a2
    1c44:	f71ff06f          	j	1bb4 <memory_subtract+0x4c>

00001c48 <memory_clear>:
    1c48:	000217b7          	lui	a5,0x21
    1c4c:	00078793          	mv	a5,a5
    1c50:	0007a023          	sw	zero,0(a5) # 21000 <memory>
    1c54:	0007a223          	sw	zero,4(a5)
    1c58:	00100713          	li	a4,1
    1c5c:	00e7a423          	sw	a4,8(a5)
    1c60:	00008067          	ret

00001c64 <memory_recall>:
    1c64:	00021737          	lui	a4,0x21
    1c68:	00070713          	mv	a4,a4
    1c6c:	00072683          	lw	a3,0(a4) # 21000 <memory>
    1c70:	00d52023          	sw	a3,0(a0)
    1c74:	00472683          	lw	a3,4(a4)
    1c78:	00d52223          	sw	a3,4(a0)
    1c7c:	00872703          	lw	a4,8(a4)
    1c80:	00e52423          	sw	a4,8(a0)
    1c84:	00008067          	ret

00001c88 <process_n>:
    1c88:	fe010113          	addi	sp,sp,-32
    1c8c:	00112e23          	sw	ra,28(sp)
    1c90:	00812c23          	sw	s0,24(sp)
    1c94:	00912a23          	sw	s1,20(sp)
    1c98:	01212823          	sw	s2,16(sp)
    1c9c:	00050913          	mv	s2,a0
    1ca0:	00058493          	mv	s1,a1
    1ca4:	00060413          	mv	s0,a2
    1ca8:	0025c783          	lbu	a5,2(a1)
    1cac:	00079663          	bnez	a5,1cb8 <process_n+0x30>
    1cb0:	0015c783          	lbu	a5,1(a1)
    1cb4:	02078a63          	beqz	a5,1ce8 <process_n+0x60>
    1cb8:	01042703          	lw	a4,16(s0)
    1cbc:	00271793          	slli	a5,a4,0x2
    1cc0:	00e787b3          	add	a5,a5,a4
    1cc4:	00179793          	slli	a5,a5,0x1
    1cc8:	fd090713          	addi	a4,s2,-48
    1ccc:	00e787b3          	add	a5,a5,a4
    1cd0:	00f42823          	sw	a5,16(s0)
    1cd4:	00989737          	lui	a4,0x989
    1cd8:	67f70713          	addi	a4,a4,1663 # 98967f <stack_bot+0x96567f>
    1cdc:	00f75663          	bge	a4,a5,1ce8 <process_n+0x60>
    1ce0:	00500793          	li	a5,5
    1ce4:	00f42023          	sw	a5,0(s0)
    1ce8:	0004c783          	lbu	a5,0(s1)
    1cec:	00078663          	beqz	a5,1cf8 <process_n+0x70>
    1cf0:	00200793          	li	a5,2
    1cf4:	00f42023          	sw	a5,0(s0)
    1cf8:	0034c783          	lbu	a5,3(s1)
    1cfc:	0c079863          	bnez	a5,1dcc <process_n+0x144>
    1d00:	0044c783          	lbu	a5,4(s1)
    1d04:	0e079063          	bnez	a5,1de4 <process_n+0x15c>
    1d08:	0054c783          	lbu	a5,5(s1)
    1d0c:	04078263          	beqz	a5,1d50 <process_n+0xc8>
    1d10:	000207b7          	lui	a5,0x20
    1d14:	06c78793          	addi	a5,a5,108 # 2006c <DATA_START+0x6c>
    1d18:	0007a803          	lw	a6,0(a5)
    1d1c:	0047a503          	lw	a0,4(a5)
    1d20:	0087a583          	lw	a1,8(a5)
    1d24:	00c7a603          	lw	a2,12(a5)
    1d28:	0107a683          	lw	a3,16(a5)
    1d2c:	0147a703          	lw	a4,20(a5)
    1d30:	0187a783          	lw	a5,24(a5)
    1d34:	01042023          	sw	a6,0(s0)
    1d38:	00a42223          	sw	a0,4(s0)
    1d3c:	00b42423          	sw	a1,8(s0)
    1d40:	00c42623          	sw	a2,12(s0)
    1d44:	00d42823          	sw	a3,16(s0)
    1d48:	00e42a23          	sw	a4,20(s0)
    1d4c:	00f42c23          	sw	a5,24(s0)
    1d50:	0064c783          	lbu	a5,6(s1)
    1d54:	02078063          	beqz	a5,1d74 <process_n+0xec>
    1d58:	01042503          	lw	a0,16(s0)
    1d5c:	00800793          	li	a5,8
    1d60:	08a7cc63          	blt	a5,a0,1df8 <process_n+0x170>
    1d64:	00300793          	li	a5,3
    1d68:	00f42023          	sw	a5,0(s0)
    1d6c:	00042823          	sw	zero,16(s0)
    1d70:	00042a23          	sw	zero,20(s0)
    1d74:	0074c783          	lbu	a5,7(s1)
    1d78:	08079863          	bnez	a5,1e08 <process_n+0x180>
    1d7c:	0084c783          	lbu	a5,8(s1)
    1d80:	0a079063          	bnez	a5,1e20 <process_n+0x198>
    1d84:	00a4c783          	lbu	a5,10(s1)
    1d88:	02078263          	beqz	a5,1dac <process_n+0x124>
    1d8c:	00410513          	addi	a0,sp,4
    1d90:	ed5ff0ef          	jal	1c64 <memory_recall>
    1d94:	00412783          	lw	a5,4(sp)
    1d98:	00f42823          	sw	a5,16(s0)
    1d9c:	00812783          	lw	a5,8(sp)
    1da0:	00f42a23          	sw	a5,20(s0)
    1da4:	00c12783          	lw	a5,12(sp)
    1da8:	00f42023          	sw	a5,0(s0)
    1dac:	0094c783          	lbu	a5,9(s1)
    1db0:	08079463          	bnez	a5,1e38 <process_n+0x1b0>
    1db4:	01c12083          	lw	ra,28(sp)
    1db8:	01812403          	lw	s0,24(sp)
    1dbc:	01412483          	lw	s1,20(sp)
    1dc0:	01012903          	lw	s2,16(sp)
    1dc4:	02010113          	addi	sp,sp,32
    1dc8:	00008067          	ret
    1dcc:	00040513          	mv	a0,s0
    1dd0:	c4cff0ef          	jal	121c <calc_result>
    1dd4:	01240c23          	sb	s2,24(s0)
    1dd8:	00300793          	li	a5,3
    1ddc:	00f42023          	sw	a5,0(s0)
    1de0:	f21ff06f          	j	1d00 <process_n+0x78>
    1de4:	00040513          	mv	a0,s0
    1de8:	c34ff0ef          	jal	121c <calc_result>
    1dec:	00400793          	li	a5,4
    1df0:	00f42023          	sw	a5,0(s0)
    1df4:	f15ff06f          	j	1d08 <process_n+0x80>
    1df8:	00a00593          	li	a1,10
    1dfc:	5b0020ef          	jal	43ac <__divsi3>
    1e00:	00a42823          	sw	a0,16(s0)
    1e04:	f71ff06f          	j	1d74 <process_n+0xec>
    1e08:	01042503          	lw	a0,16(s0)
    1e0c:	01442583          	lw	a1,20(s0)
    1e10:	c79ff0ef          	jal	1a88 <memory_add>
    1e14:	f60514e3          	bnez	a0,1d7c <process_n+0xf4>
    1e18:	e31ff0ef          	jal	1c48 <memory_clear>
    1e1c:	f61ff06f          	j	1d7c <process_n+0xf4>
    1e20:	01042503          	lw	a0,16(s0)
    1e24:	01442583          	lw	a1,20(s0)
    1e28:	d41ff0ef          	jal	1b68 <memory_subtract>
    1e2c:	f4051ce3          	bnez	a0,1d84 <process_n+0xfc>
    1e30:	e19ff0ef          	jal	1c48 <memory_clear>
    1e34:	f51ff06f          	j	1d84 <process_n+0xfc>
    1e38:	e11ff0ef          	jal	1c48 <memory_clear>
    1e3c:	f79ff06f          	j	1db4 <process_n+0x12c>

00001e40 <process_zero>:
    1e40:	fe010113          	addi	sp,sp,-32
    1e44:	00112e23          	sw	ra,28(sp)
    1e48:	00812c23          	sw	s0,24(sp)
    1e4c:	00912a23          	sw	s1,20(sp)
    1e50:	01212823          	sw	s2,16(sp)
    1e54:	00050913          	mv	s2,a0
    1e58:	00058493          	mv	s1,a1
    1e5c:	00060413          	mv	s0,a2
    1e60:	0005c783          	lbu	a5,0(a1)
    1e64:	00078663          	beqz	a5,1e70 <process_zero+0x30>
    1e68:	00200793          	li	a5,2
    1e6c:	00f62023          	sw	a5,0(a2)
    1e70:	0034c783          	lbu	a5,3(s1)
    1e74:	0e079663          	bnez	a5,1f60 <process_zero+0x120>
    1e78:	0044c783          	lbu	a5,4(s1)
    1e7c:	0e079e63          	bnez	a5,1f78 <process_zero+0x138>
    1e80:	0024c783          	lbu	a5,2(s1)
    1e84:	00078863          	beqz	a5,1e94 <process_zero+0x54>
    1e88:	fd090513          	addi	a0,s2,-48
    1e8c:	00a42823          	sw	a0,16(s0)
    1e90:	00042023          	sw	zero,0(s0)
    1e94:	0014c783          	lbu	a5,1(s1)
    1e98:	00078863          	beqz	a5,1ea8 <process_zero+0x68>
    1e9c:	00042823          	sw	zero,16(s0)
    1ea0:	00100793          	li	a5,1
    1ea4:	00f42023          	sw	a5,0(s0)
    1ea8:	0054c783          	lbu	a5,5(s1)
    1eac:	04078263          	beqz	a5,1ef0 <process_zero+0xb0>
    1eb0:	000207b7          	lui	a5,0x20
    1eb4:	06c78793          	addi	a5,a5,108 # 2006c <DATA_START+0x6c>
    1eb8:	0007a803          	lw	a6,0(a5)
    1ebc:	0047a503          	lw	a0,4(a5)
    1ec0:	0087a583          	lw	a1,8(a5)
    1ec4:	00c7a603          	lw	a2,12(a5)
    1ec8:	0107a683          	lw	a3,16(a5)
    1ecc:	0147a703          	lw	a4,20(a5)
    1ed0:	0187a783          	lw	a5,24(a5)
    1ed4:	01042023          	sw	a6,0(s0)
    1ed8:	00a42223          	sw	a0,4(s0)
    1edc:	00b42423          	sw	a1,8(s0)
    1ee0:	00c42623          	sw	a2,12(s0)
    1ee4:	00d42823          	sw	a3,16(s0)
    1ee8:	00e42a23          	sw	a4,20(s0)
    1eec:	00f42c23          	sw	a5,24(s0)
    1ef0:	0064c783          	lbu	a5,6(s1)
    1ef4:	00078a63          	beqz	a5,1f08 <process_zero+0xc8>
    1ef8:	00300793          	li	a5,3
    1efc:	00f42023          	sw	a5,0(s0)
    1f00:	00042823          	sw	zero,16(s0)
    1f04:	00042a23          	sw	zero,20(s0)
    1f08:	0074c783          	lbu	a5,7(s1)
    1f0c:	08079063          	bnez	a5,1f8c <process_zero+0x14c>
    1f10:	0084c783          	lbu	a5,8(s1)
    1f14:	08079863          	bnez	a5,1fa4 <process_zero+0x164>
    1f18:	00a4c783          	lbu	a5,10(s1)
    1f1c:	02078263          	beqz	a5,1f40 <process_zero+0x100>
    1f20:	00410513          	addi	a0,sp,4
    1f24:	d41ff0ef          	jal	1c64 <memory_recall>
    1f28:	00412783          	lw	a5,4(sp)
    1f2c:	00f42823          	sw	a5,16(s0)
    1f30:	00812783          	lw	a5,8(sp)
    1f34:	00f42a23          	sw	a5,20(s0)
    1f38:	00c12783          	lw	a5,12(sp)
    1f3c:	00f42023          	sw	a5,0(s0)
    1f40:	0094c783          	lbu	a5,9(s1)
    1f44:	06079c63          	bnez	a5,1fbc <process_zero+0x17c>
    1f48:	01c12083          	lw	ra,28(sp)
    1f4c:	01812403          	lw	s0,24(sp)
    1f50:	01412483          	lw	s1,20(sp)
    1f54:	01012903          	lw	s2,16(sp)
    1f58:	02010113          	addi	sp,sp,32
    1f5c:	00008067          	ret
    1f60:	00040513          	mv	a0,s0
    1f64:	ab8ff0ef          	jal	121c <calc_result>
    1f68:	01240c23          	sb	s2,24(s0)
    1f6c:	00300793          	li	a5,3
    1f70:	00f42023          	sw	a5,0(s0)
    1f74:	f05ff06f          	j	1e78 <process_zero+0x38>
    1f78:	00040513          	mv	a0,s0
    1f7c:	aa0ff0ef          	jal	121c <calc_result>
    1f80:	00400793          	li	a5,4
    1f84:	00f42023          	sw	a5,0(s0)
    1f88:	ef9ff06f          	j	1e80 <process_zero+0x40>
    1f8c:	01042503          	lw	a0,16(s0)
    1f90:	01442583          	lw	a1,20(s0)
    1f94:	af5ff0ef          	jal	1a88 <memory_add>
    1f98:	f6051ce3          	bnez	a0,1f10 <process_zero+0xd0>
    1f9c:	cadff0ef          	jal	1c48 <memory_clear>
    1fa0:	f71ff06f          	j	1f10 <process_zero+0xd0>
    1fa4:	01042503          	lw	a0,16(s0)
    1fa8:	01442583          	lw	a1,20(s0)
    1fac:	bbdff0ef          	jal	1b68 <memory_subtract>
    1fb0:	f60514e3          	bnez	a0,1f18 <process_zero+0xd8>
    1fb4:	c95ff0ef          	jal	1c48 <memory_clear>
    1fb8:	f61ff06f          	j	1f18 <process_zero+0xd8>
    1fbc:	c8dff0ef          	jal	1c48 <memory_clear>
    1fc0:	f89ff06f          	j	1f48 <process_zero+0x108>

00001fc4 <process_dec>:
    1fc4:	fe010113          	addi	sp,sp,-32
    1fc8:	00112e23          	sw	ra,28(sp)
    1fcc:	00812c23          	sw	s0,24(sp)
    1fd0:	00912a23          	sw	s1,20(sp)
    1fd4:	01212823          	sw	s2,16(sp)
    1fd8:	00050913          	mv	s2,a0
    1fdc:	00058493          	mv	s1,a1
    1fe0:	00060413          	mv	s0,a2
    1fe4:	0005c783          	lbu	a5,0(a1)
    1fe8:	00078663          	beqz	a5,1ff4 <process_dec+0x30>
    1fec:	00500793          	li	a5,5
    1ff0:	00f62023          	sw	a5,0(a2)
    1ff4:	0014c783          	lbu	a5,1(s1)
    1ff8:	00079663          	bnez	a5,2004 <process_dec+0x40>
    1ffc:	0024c783          	lbu	a5,2(s1)
    2000:	02078e63          	beqz	a5,203c <process_dec+0x78>
    2004:	01042703          	lw	a4,16(s0)
    2008:	00271793          	slli	a5,a4,0x2
    200c:	00e787b3          	add	a5,a5,a4
    2010:	00179793          	slli	a5,a5,0x1
    2014:	fd090713          	addi	a4,s2,-48
    2018:	00e787b3          	add	a5,a5,a4
    201c:	00f42823          	sw	a5,16(s0)
    2020:	01442783          	lw	a5,20(s0)
    2024:	00178793          	addi	a5,a5,1
    2028:	00f42a23          	sw	a5,20(s0)
    202c:	00700713          	li	a4,7
    2030:	0ef75263          	bge	a4,a5,2114 <process_dec+0x150>
    2034:	00500793          	li	a5,5
    2038:	00f42023          	sw	a5,0(s0)
    203c:	0034c783          	lbu	a5,3(s1)
    2040:	0e079063          	bnez	a5,2120 <process_dec+0x15c>
    2044:	0044c783          	lbu	a5,4(s1)
    2048:	0e079863          	bnez	a5,2138 <process_dec+0x174>
    204c:	0054c783          	lbu	a5,5(s1)
    2050:	04078263          	beqz	a5,2094 <process_dec+0xd0>
    2054:	000207b7          	lui	a5,0x20
    2058:	06c78793          	addi	a5,a5,108 # 2006c <DATA_START+0x6c>
    205c:	0007a803          	lw	a6,0(a5)
    2060:	0047a503          	lw	a0,4(a5)
    2064:	0087a583          	lw	a1,8(a5)
    2068:	00c7a603          	lw	a2,12(a5)
    206c:	0107a683          	lw	a3,16(a5)
    2070:	0147a703          	lw	a4,20(a5)
    2074:	0187a783          	lw	a5,24(a5)
    2078:	01042023          	sw	a6,0(s0)
    207c:	00a42223          	sw	a0,4(s0)
    2080:	00b42423          	sw	a1,8(s0)
    2084:	00c42623          	sw	a2,12(s0)
    2088:	00d42823          	sw	a3,16(s0)
    208c:	00e42a23          	sw	a4,20(s0)
    2090:	00f42c23          	sw	a5,24(s0)
    2094:	0064c783          	lbu	a5,6(s1)
    2098:	02078263          	beqz	a5,20bc <process_dec+0xf8>
    209c:	01442903          	lw	s2,20(s0)
    20a0:	0b205663          	blez	s2,214c <process_dec+0x188>
    20a4:	00a00593          	li	a1,10
    20a8:	01042503          	lw	a0,16(s0)
    20ac:	300020ef          	jal	43ac <__divsi3>
    20b0:	00a42823          	sw	a0,16(s0)
    20b4:	fff90913          	addi	s2,s2,-1
    20b8:	01242a23          	sw	s2,20(s0)
    20bc:	0074c783          	lbu	a5,7(s1)
    20c0:	08079a63          	bnez	a5,2154 <process_dec+0x190>
    20c4:	0084c783          	lbu	a5,8(s1)
    20c8:	0a079263          	bnez	a5,216c <process_dec+0x1a8>
    20cc:	00a4c783          	lbu	a5,10(s1)
    20d0:	02078263          	beqz	a5,20f4 <process_dec+0x130>
    20d4:	00410513          	addi	a0,sp,4
    20d8:	b8dff0ef          	jal	1c64 <memory_recall>
    20dc:	00412783          	lw	a5,4(sp)
    20e0:	00f42823          	sw	a5,16(s0)
    20e4:	00812783          	lw	a5,8(sp)
    20e8:	00f42a23          	sw	a5,20(s0)
    20ec:	00c12783          	lw	a5,12(sp)
    20f0:	00f42023          	sw	a5,0(s0)
    20f4:	0094c783          	lbu	a5,9(s1)
    20f8:	08079663          	bnez	a5,2184 <process_dec+0x1c0>
    20fc:	01c12083          	lw	ra,28(sp)
    2100:	01812403          	lw	s0,24(sp)
    2104:	01412483          	lw	s1,20(sp)
    2108:	01012903          	lw	s2,16(sp)
    210c:	02010113          	addi	sp,sp,32
    2110:	00008067          	ret
    2114:	00200793          	li	a5,2
    2118:	00f42023          	sw	a5,0(s0)
    211c:	f21ff06f          	j	203c <process_dec+0x78>
    2120:	00040513          	mv	a0,s0
    2124:	8f8ff0ef          	jal	121c <calc_result>
    2128:	01240c23          	sb	s2,24(s0)
    212c:	00300793          	li	a5,3
    2130:	00f42023          	sw	a5,0(s0)
    2134:	f11ff06f          	j	2044 <process_dec+0x80>
    2138:	00040513          	mv	a0,s0
    213c:	8e0ff0ef          	jal	121c <calc_result>
    2140:	00400793          	li	a5,4
    2144:	00f42023          	sw	a5,0(s0)
    2148:	f05ff06f          	j	204c <process_dec+0x88>
    214c:	00042023          	sw	zero,0(s0)
    2150:	f6dff06f          	j	20bc <process_dec+0xf8>
    2154:	01042503          	lw	a0,16(s0)
    2158:	01442583          	lw	a1,20(s0)
    215c:	92dff0ef          	jal	1a88 <memory_add>
    2160:	f60512e3          	bnez	a0,20c4 <process_dec+0x100>
    2164:	ae5ff0ef          	jal	1c48 <memory_clear>
    2168:	f5dff06f          	j	20c4 <process_dec+0x100>
    216c:	01042503          	lw	a0,16(s0)
    2170:	01442583          	lw	a1,20(s0)
    2174:	9f5ff0ef          	jal	1b68 <memory_subtract>
    2178:	f4051ae3          	bnez	a0,20cc <process_dec+0x108>
    217c:	acdff0ef          	jal	1c48 <memory_clear>
    2180:	f4dff06f          	j	20cc <process_dec+0x108>
    2184:	ac5ff0ef          	jal	1c48 <memory_clear>
    2188:	f75ff06f          	j	20fc <process_dec+0x138>

0000218c <process_op>:
    218c:	fe010113          	addi	sp,sp,-32
    2190:	00112e23          	sw	ra,28(sp)
    2194:	00812c23          	sw	s0,24(sp)
    2198:	00912a23          	sw	s1,20(sp)
    219c:	00058493          	mv	s1,a1
    21a0:	00060413          	mv	s0,a2
    21a4:	0005c783          	lbu	a5,0(a1)
    21a8:	02079263          	bnez	a5,21cc <process_op+0x40>
    21ac:	0045c783          	lbu	a5,4(a1)
    21b0:	00079e63          	bnez	a5,21cc <process_op+0x40>
    21b4:	0035c783          	lbu	a5,3(a1)
    21b8:	00079a63          	bnez	a5,21cc <process_op+0x40>
    21bc:	0075c783          	lbu	a5,7(a1)
    21c0:	00079663          	bnez	a5,21cc <process_op+0x40>
    21c4:	0085c783          	lbu	a5,8(a1)
    21c8:	00078663          	beqz	a5,21d4 <process_op+0x48>
    21cc:	00500793          	li	a5,5
    21d0:	00f42023          	sw	a5,0(s0)
    21d4:	0024c783          	lbu	a5,2(s1)
    21d8:	00078863          	beqz	a5,21e8 <process_op+0x5c>
    21dc:	fd050513          	addi	a0,a0,-48
    21e0:	00a42823          	sw	a0,16(s0)
    21e4:	00042023          	sw	zero,0(s0)
    21e8:	0014c783          	lbu	a5,1(s1)
    21ec:	00078863          	beqz	a5,21fc <process_op+0x70>
    21f0:	00042823          	sw	zero,16(s0)
    21f4:	00100793          	li	a5,1
    21f8:	00f42023          	sw	a5,0(s0)
    21fc:	0054c783          	lbu	a5,5(s1)
    2200:	04078263          	beqz	a5,2244 <process_op+0xb8>
    2204:	000207b7          	lui	a5,0x20
    2208:	06c78793          	addi	a5,a5,108 # 2006c <DATA_START+0x6c>
    220c:	0007a803          	lw	a6,0(a5)
    2210:	0047a503          	lw	a0,4(a5)
    2214:	0087a583          	lw	a1,8(a5)
    2218:	00c7a603          	lw	a2,12(a5)
    221c:	0107a683          	lw	a3,16(a5)
    2220:	0147a703          	lw	a4,20(a5)
    2224:	0187a783          	lw	a5,24(a5)
    2228:	01042023          	sw	a6,0(s0)
    222c:	00a42223          	sw	a0,4(s0)
    2230:	00b42423          	sw	a1,8(s0)
    2234:	00c42623          	sw	a2,12(s0)
    2238:	00d42823          	sw	a3,16(s0)
    223c:	00e42a23          	sw	a4,20(s0)
    2240:	00f42c23          	sw	a5,24(s0)
    2244:	0064c783          	lbu	a5,6(s1)
    2248:	02078a63          	beqz	a5,227c <process_op+0xf0>
    224c:	00842703          	lw	a4,8(s0)
    2250:	00c42783          	lw	a5,12(s0)
    2254:	00442683          	lw	a3,4(s0)
    2258:	00d42023          	sw	a3,0(s0)
    225c:	00300693          	li	a3,3
    2260:	00d42223          	sw	a3,4(s0)
    2264:	00042423          	sw	zero,8(s0)
    2268:	00042623          	sw	zero,12(s0)
    226c:	00e42823          	sw	a4,16(s0)
    2270:	00f42a23          	sw	a5,20(s0)
    2274:	02b00793          	li	a5,43
    2278:	00f40c23          	sb	a5,24(s0)
    227c:	0074c783          	lbu	a5,7(s1)
    2280:	04079863          	bnez	a5,22d0 <process_op+0x144>
    2284:	0084c783          	lbu	a5,8(s1)
    2288:	06079063          	bnez	a5,22e8 <process_op+0x15c>
    228c:	00a4c783          	lbu	a5,10(s1)
    2290:	02078263          	beqz	a5,22b4 <process_op+0x128>
    2294:	00410513          	addi	a0,sp,4
    2298:	9cdff0ef          	jal	1c64 <memory_recall>
    229c:	00412783          	lw	a5,4(sp)
    22a0:	00f42823          	sw	a5,16(s0)
    22a4:	00812783          	lw	a5,8(sp)
    22a8:	00f42a23          	sw	a5,20(s0)
    22ac:	00c12783          	lw	a5,12(sp)
    22b0:	00f42023          	sw	a5,0(s0)
    22b4:	0094c783          	lbu	a5,9(s1)
    22b8:	04079463          	bnez	a5,2300 <process_op+0x174>
    22bc:	01c12083          	lw	ra,28(sp)
    22c0:	01812403          	lw	s0,24(sp)
    22c4:	01412483          	lw	s1,20(sp)
    22c8:	02010113          	addi	sp,sp,32
    22cc:	00008067          	ret
    22d0:	00842503          	lw	a0,8(s0)
    22d4:	00c42583          	lw	a1,12(s0)
    22d8:	fb0ff0ef          	jal	1a88 <memory_add>
    22dc:	fa0514e3          	bnez	a0,2284 <process_op+0xf8>
    22e0:	969ff0ef          	jal	1c48 <memory_clear>
    22e4:	fa1ff06f          	j	2284 <process_op+0xf8>
    22e8:	00842503          	lw	a0,8(s0)
    22ec:	00c42583          	lw	a1,12(s0)
    22f0:	879ff0ef          	jal	1b68 <memory_subtract>
    22f4:	f8051ce3          	bnez	a0,228c <process_op+0x100>
    22f8:	951ff0ef          	jal	1c48 <memory_clear>
    22fc:	f91ff06f          	j	228c <process_op+0x100>
    2300:	949ff0ef          	jal	1c48 <memory_clear>
    2304:	fb9ff06f          	j	22bc <process_op+0x130>

00002308 <process_re>:
    2308:	fe010113          	addi	sp,sp,-32
    230c:	00112e23          	sw	ra,28(sp)
    2310:	00812c23          	sw	s0,24(sp)
    2314:	00912a23          	sw	s1,20(sp)
    2318:	00058493          	mv	s1,a1
    231c:	00060413          	mv	s0,a2
    2320:	0005c783          	lbu	a5,0(a1)
    2324:	00078663          	beqz	a5,2330 <process_re+0x28>
    2328:	00500793          	li	a5,5
    232c:	00f62023          	sw	a5,0(a2)
    2330:	0014c783          	lbu	a5,1(s1)
    2334:	04078263          	beqz	a5,2378 <process_re+0x70>
    2338:	000207b7          	lui	a5,0x20
    233c:	06c78793          	addi	a5,a5,108 # 2006c <DATA_START+0x6c>
    2340:	01c7a883          	lw	a7,28(a5)
    2344:	0207a803          	lw	a6,32(a5)
    2348:	0247a583          	lw	a1,36(a5)
    234c:	0287a603          	lw	a2,40(a5)
    2350:	02c7a683          	lw	a3,44(a5)
    2354:	0307a703          	lw	a4,48(a5)
    2358:	0347a783          	lw	a5,52(a5)
    235c:	01142023          	sw	a7,0(s0)
    2360:	01042223          	sw	a6,4(s0)
    2364:	00b42423          	sw	a1,8(s0)
    2368:	00c42623          	sw	a2,12(s0)
    236c:	00d42823          	sw	a3,16(s0)
    2370:	00e42a23          	sw	a4,20(s0)
    2374:	00f42c23          	sw	a5,24(s0)
    2378:	0024c783          	lbu	a5,2(s1)
    237c:	02078663          	beqz	a5,23a8 <process_re+0xa0>
    2380:	00042023          	sw	zero,0(s0)
    2384:	00400793          	li	a5,4
    2388:	00f42223          	sw	a5,4(s0)
    238c:	00042423          	sw	zero,8(s0)
    2390:	00042623          	sw	zero,12(s0)
    2394:	fd050793          	addi	a5,a0,-48
    2398:	00f42823          	sw	a5,16(s0)
    239c:	00042a23          	sw	zero,20(s0)
    23a0:	02b00793          	li	a5,43
    23a4:	00f40c23          	sb	a5,24(s0)
    23a8:	0034c783          	lbu	a5,3(s1)
    23ac:	02078063          	beqz	a5,23cc <process_re+0xc4>
    23b0:	00300793          	li	a5,3
    23b4:	00f42023          	sw	a5,0(s0)
    23b8:	00400793          	li	a5,4
    23bc:	00f42223          	sw	a5,4(s0)
    23c0:	00042823          	sw	zero,16(s0)
    23c4:	00042a23          	sw	zero,20(s0)
    23c8:	00a40c23          	sb	a0,24(s0)
    23cc:	0044c783          	lbu	a5,4(s1)
    23d0:	00078663          	beqz	a5,23dc <process_re+0xd4>
    23d4:	00400793          	li	a5,4
    23d8:	00f42023          	sw	a5,0(s0)
    23dc:	0054c783          	lbu	a5,5(s1)
    23e0:	04078263          	beqz	a5,2424 <process_re+0x11c>
    23e4:	000207b7          	lui	a5,0x20
    23e8:	06c78793          	addi	a5,a5,108 # 2006c <DATA_START+0x6c>
    23ec:	0007a803          	lw	a6,0(a5)
    23f0:	0047a503          	lw	a0,4(a5)
    23f4:	0087a583          	lw	a1,8(a5)
    23f8:	00c7a603          	lw	a2,12(a5)
    23fc:	0107a683          	lw	a3,16(a5)
    2400:	0147a703          	lw	a4,20(a5)
    2404:	0187a783          	lw	a5,24(a5)
    2408:	01042023          	sw	a6,0(s0)
    240c:	00a42223          	sw	a0,4(s0)
    2410:	00b42423          	sw	a1,8(s0)
    2414:	00c42623          	sw	a2,12(s0)
    2418:	00d42823          	sw	a3,16(s0)
    241c:	00e42a23          	sw	a4,20(s0)
    2420:	00f42c23          	sw	a5,24(s0)
    2424:	0064c783          	lbu	a5,6(s1)
    2428:	00078663          	beqz	a5,2434 <process_re+0x12c>
    242c:	00500793          	li	a5,5
    2430:	00f42023          	sw	a5,0(s0)
    2434:	0074c783          	lbu	a5,7(s1)
    2438:	06079063          	bnez	a5,2498 <process_re+0x190>
    243c:	0084c783          	lbu	a5,8(s1)
    2440:	06079863          	bnez	a5,24b0 <process_re+0x1a8>
    2444:	00a4c783          	lbu	a5,10(s1)
    2448:	02078a63          	beqz	a5,247c <process_re+0x174>
    244c:	00042423          	sw	zero,8(s0)
    2450:	00042623          	sw	zero,12(s0)
    2454:	02b00793          	li	a5,43
    2458:	00f40c23          	sb	a5,24(s0)
    245c:	00410513          	addi	a0,sp,4
    2460:	805ff0ef          	jal	1c64 <memory_recall>
    2464:	00412783          	lw	a5,4(sp)
    2468:	00f42823          	sw	a5,16(s0)
    246c:	00812783          	lw	a5,8(sp)
    2470:	00f42a23          	sw	a5,20(s0)
    2474:	00c12783          	lw	a5,12(sp)
    2478:	00f42023          	sw	a5,0(s0)
    247c:	0094c783          	lbu	a5,9(s1)
    2480:	04079463          	bnez	a5,24c8 <process_re+0x1c0>
    2484:	01c12083          	lw	ra,28(sp)
    2488:	01812403          	lw	s0,24(sp)
    248c:	01412483          	lw	s1,20(sp)
    2490:	02010113          	addi	sp,sp,32
    2494:	00008067          	ret
    2498:	00842503          	lw	a0,8(s0)
    249c:	00c42583          	lw	a1,12(s0)
    24a0:	de8ff0ef          	jal	1a88 <memory_add>
    24a4:	f8051ce3          	bnez	a0,243c <process_re+0x134>
    24a8:	fa0ff0ef          	jal	1c48 <memory_clear>
    24ac:	f91ff06f          	j	243c <process_re+0x134>
    24b0:	00842503          	lw	a0,8(s0)
    24b4:	00c42583          	lw	a1,12(s0)
    24b8:	eb0ff0ef          	jal	1b68 <memory_subtract>
    24bc:	f80514e3          	bnez	a0,2444 <process_re+0x13c>
    24c0:	f88ff0ef          	jal	1c48 <memory_clear>
    24c4:	f81ff06f          	j	2444 <process_re+0x13c>
    24c8:	f80ff0ef          	jal	1c48 <memory_clear>
    24cc:	fb9ff06f          	j	2484 <process_re+0x17c>

000024d0 <update_process_status>:
    24d0:	00062783          	lw	a5,0(a2)
    24d4:	00f62223          	sw	a5,4(a2)
    24d8:	00500713          	li	a4,5
    24dc:	04f76e63          	bltu	a4,a5,2538 <update_process_status+0x68>
    24e0:	ff010113          	addi	sp,sp,-16
    24e4:	00112623          	sw	ra,12(sp)
    24e8:	00279793          	slli	a5,a5,0x2
    24ec:	00020737          	lui	a4,0x20
    24f0:	05470713          	addi	a4,a4,84 # 20054 <DATA_START+0x54>
    24f4:	00e787b3          	add	a5,a5,a4
    24f8:	0007a783          	lw	a5,0(a5)
    24fc:	00078067          	jr	a5
    2500:	f88ff0ef          	jal	1c88 <process_n>
    2504:	00c12083          	lw	ra,12(sp)
    2508:	01010113          	addi	sp,sp,16
    250c:	00008067          	ret
    2510:	931ff0ef          	jal	1e40 <process_zero>
    2514:	ff1ff06f          	j	2504 <update_process_status+0x34>
    2518:	aadff0ef          	jal	1fc4 <process_dec>
    251c:	fe9ff06f          	j	2504 <update_process_status+0x34>
    2520:	c6dff0ef          	jal	218c <process_op>
    2524:	fe1ff06f          	j	2504 <update_process_status+0x34>
    2528:	854ff0ef          	jal	157c <process_er>
    252c:	fd9ff06f          	j	2504 <update_process_status+0x34>
    2530:	dd9ff0ef          	jal	2308 <process_re>
    2534:	fd1ff06f          	j	2504 <update_process_status+0x34>
    2538:	00008067          	ret

0000253c <main>:
    253c:	fc010113          	addi	sp,sp,-64
    2540:	02112e23          	sw	ra,60(sp)
    2544:	02812c23          	sw	s0,56(sp)
    2548:	02912a23          	sw	s1,52(sp)
    254c:	03212823          	sw	s2,48(sp)
    2550:	0f0010ef          	jal	3640 <start_profiler>
    2554:	000107a3          	sb	zero,15(sp)
    2558:	00010823          	sb	zero,16(sp)
    255c:	000108a3          	sb	zero,17(sp)
    2560:	000207b7          	lui	a5,0x20
    2564:	06c78793          	addi	a5,a5,108 # 2006c <DATA_START+0x6c>
    2568:	0007a803          	lw	a6,0(a5)
    256c:	0047a503          	lw	a0,4(a5)
    2570:	0087a583          	lw	a1,8(a5)
    2574:	00c7a603          	lw	a2,12(a5)
    2578:	0107a683          	lw	a3,16(a5)
    257c:	0147a703          	lw	a4,20(a5)
    2580:	0187a783          	lw	a5,24(a5)
    2584:	01012a23          	sw	a6,20(sp)
    2588:	00a12c23          	sw	a0,24(sp)
    258c:	00b12e23          	sw	a1,28(sp)
    2590:	02c12023          	sw	a2,32(sp)
    2594:	02d12223          	sw	a3,36(sp)
    2598:	02e12423          	sw	a4,40(sp)
    259c:	02f12623          	sw	a5,44(sp)
    25a0:	834ff0ef          	jal	15d4 <print_setup>
    25a4:	00810913          	addi	s2,sp,8
    25a8:	01410493          	addi	s1,sp,20
    25ac:	a99fe0ef          	jal	1044 <get_valid_key>
    25b0:	00050413          	mv	s0,a0
    25b4:	00090593          	mv	a1,s2
    25b8:	b2dfe0ef          	jal	10e4 <update_flag>
    25bc:	00048613          	mv	a2,s1
    25c0:	00090593          	mv	a1,s2
    25c4:	00040513          	mv	a0,s0
    25c8:	f09ff0ef          	jal	24d0 <update_process_status>
    25cc:	00048513          	mv	a0,s1
    25d0:	c10ff0ef          	jal	19e0 <update_display>
    25d4:	fd9ff06f          	j	25ac <main+0x70>

000025d8 <puthex>:
    25d8:	fe010113          	addi	sp,sp,-32
    25dc:	00112e23          	sw	ra,28(sp)
    25e0:	00912a23          	sw	s1,20(sp)
    25e4:	01312623          	sw	s3,12(sp)
    25e8:	00050993          	mv	s3,a0
    25ec:	00060493          	mv	s1,a2
    25f0:	06059863          	bnez	a1,2660 <puthex+0x88>
    25f4:	06058263          	beqz	a1,2658 <puthex+0x80>
    25f8:	00812c23          	sw	s0,24(sp)
    25fc:	01212823          	sw	s2,16(sp)
    2600:	fff68413          	addi	s0,a3,-1
    2604:	00021937          	lui	s2,0x21
    2608:	06805c63          	blez	s0,2680 <puthex+0xa8>
    260c:	02c92783          	lw	a5,44(s2) # 2102c <io_putch>
    2610:	00048513          	mv	a0,s1
    2614:	000780e7          	jalr	a5
    2618:	fff40413          	addi	s0,s0,-1
    261c:	fe0418e3          	bnez	s0,260c <puthex+0x34>
    2620:	01812403          	lw	s0,24(sp)
    2624:	01012903          	lw	s2,16(sp)
    2628:	00f9f513          	andi	a0,s3,15
    262c:	00900793          	li	a5,9
    2630:	04a7ee63          	bltu	a5,a0,268c <puthex+0xb4>
    2634:	000217b7          	lui	a5,0x21
    2638:	02c7a783          	lw	a5,44(a5) # 2102c <io_putch>
    263c:	03050513          	addi	a0,a0,48
    2640:	000780e7          	jalr	a5
    2644:	01c12083          	lw	ra,28(sp)
    2648:	01412483          	lw	s1,20(sp)
    264c:	00c12983          	lw	s3,12(sp)
    2650:	02010113          	addi	sp,sp,32
    2654:	00008067          	ret
    2658:	00f00793          	li	a5,15
    265c:	f8a7fee3          	bgeu	a5,a0,25f8 <puthex+0x20>
    2660:	01c59793          	slli	a5,a1,0x1c
    2664:	0049d513          	srli	a0,s3,0x4
    2668:	fff68693          	addi	a3,a3,-1
    266c:	00048613          	mv	a2,s1
    2670:	00a7e533          	or	a0,a5,a0
    2674:	0045d593          	srli	a1,a1,0x4
    2678:	f61ff0ef          	jal	25d8 <puthex>
    267c:	fadff06f          	j	2628 <puthex+0x50>
    2680:	01812403          	lw	s0,24(sp)
    2684:	01012903          	lw	s2,16(sp)
    2688:	fa1ff06f          	j	2628 <puthex+0x50>
    268c:	000217b7          	lui	a5,0x21
    2690:	02c7a783          	lw	a5,44(a5) # 2102c <io_putch>
    2694:	05750513          	addi	a0,a0,87
    2698:	000780e7          	jalr	a5
    269c:	fa9ff06f          	j	2644 <puthex+0x6c>

000026a0 <putdec>:
    26a0:	fe010113          	addi	sp,sp,-32
    26a4:	00112e23          	sw	ra,28(sp)
    26a8:	00812c23          	sw	s0,24(sp)
    26ac:	00912a23          	sw	s1,20(sp)
    26b0:	01312623          	sw	s3,12(sp)
    26b4:	01412423          	sw	s4,8(sp)
    26b8:	01512223          	sw	s5,4(sp)
    26bc:	00050a13          	mv	s4,a0
    26c0:	00058993          	mv	s3,a1
    26c4:	00060a93          	mv	s5,a2
    26c8:	00068493          	mv	s1,a3
    26cc:	04b04463          	bgtz	a1,2714 <putdec+0x74>
    26d0:	02058e63          	beqz	a1,270c <putdec+0x6c>
    26d4:	01212823          	sw	s2,16(sp)
    26d8:	fff70413          	addi	s0,a4,-1
    26dc:	00021937          	lui	s2,0x21
    26e0:	00805c63          	blez	s0,26f8 <putdec+0x58>
    26e4:	02c92783          	lw	a5,44(s2) # 2102c <io_putch>
    26e8:	00048513          	mv	a0,s1
    26ec:	000780e7          	jalr	a5
    26f0:	fff40413          	addi	s0,s0,-1
    26f4:	fe0418e3          	bnez	s0,26e4 <putdec+0x44>
    26f8:	060a8063          	beqz	s5,2758 <putdec+0xb8>
    26fc:	02000793          	li	a5,32
    2700:	04f48063          	beq	s1,a5,2740 <putdec+0xa0>
    2704:	01012903          	lw	s2,16(sp)
    2708:	0540006f          	j	275c <putdec+0xbc>
    270c:	00900793          	li	a5,9
    2710:	fca7f2e3          	bgeu	a5,a0,26d4 <putdec+0x34>
    2714:	fff70413          	addi	s0,a4,-1
    2718:	00a00613          	li	a2,10
    271c:	00000693          	li	a3,0
    2720:	000a0513          	mv	a0,s4
    2724:	00098593          	mv	a1,s3
    2728:	040010ef          	jal	3768 <__divdi3>
    272c:	00040713          	mv	a4,s0
    2730:	00048693          	mv	a3,s1
    2734:	000a8613          	mv	a2,s5
    2738:	f69ff0ef          	jal	26a0 <putdec>
    273c:	0200006f          	j	275c <putdec+0xbc>
    2740:	000217b7          	lui	a5,0x21
    2744:	02c7a783          	lw	a5,44(a5) # 2102c <io_putch>
    2748:	02d00513          	li	a0,45
    274c:	000780e7          	jalr	a5
    2750:	01012903          	lw	s2,16(sp)
    2754:	0080006f          	j	275c <putdec+0xbc>
    2758:	01012903          	lw	s2,16(sp)
    275c:	00a00613          	li	a2,10
    2760:	00000693          	li	a3,0
    2764:	000a0513          	mv	a0,s4
    2768:	00098593          	mv	a1,s3
    276c:	60c010ef          	jal	3d78 <__moddi3>
    2770:	03050513          	addi	a0,a0,48
    2774:	000217b7          	lui	a5,0x21
    2778:	02c7a783          	lw	a5,44(a5) # 2102c <io_putch>
    277c:	0ff57513          	zext.b	a0,a0
    2780:	000780e7          	jalr	a5
    2784:	01c12083          	lw	ra,28(sp)
    2788:	01812403          	lw	s0,24(sp)
    278c:	01412483          	lw	s1,20(sp)
    2790:	00c12983          	lw	s3,12(sp)
    2794:	00812a03          	lw	s4,8(sp)
    2798:	00412a83          	lw	s5,4(sp)
    279c:	02010113          	addi	sp,sp,32
    27a0:	00008067          	ret

000027a4 <putline>:
    27a4:	ff010113          	addi	sp,sp,-16
    27a8:	00112623          	sw	ra,12(sp)
    27ac:	00812423          	sw	s0,8(sp)
    27b0:	00150413          	addi	s0,a0,1
    27b4:	00054503          	lbu	a0,0(a0)
    27b8:	02050263          	beqz	a0,27dc <putline+0x38>
    27bc:	00912223          	sw	s1,4(sp)
    27c0:	000214b7          	lui	s1,0x21
    27c4:	02c4a783          	lw	a5,44(s1) # 2102c <io_putch>
    27c8:	000780e7          	jalr	a5
    27cc:	00140413          	addi	s0,s0,1
    27d0:	fff44503          	lbu	a0,-1(s0)
    27d4:	fe0518e3          	bnez	a0,27c4 <putline+0x20>
    27d8:	00412483          	lw	s1,4(sp)
    27dc:	00c12083          	lw	ra,12(sp)
    27e0:	00812403          	lw	s0,8(sp)
    27e4:	01010113          	addi	sp,sp,16
    27e8:	00008067          	ret

000027ec <puts>:
    27ec:	ff010113          	addi	sp,sp,-16
    27f0:	00112623          	sw	ra,12(sp)
    27f4:	fb1ff0ef          	jal	27a4 <putline>
    27f8:	000217b7          	lui	a5,0x21
    27fc:	02c7a783          	lw	a5,44(a5) # 2102c <io_putch>
    2800:	00a00513          	li	a0,10
    2804:	000780e7          	jalr	a5
    2808:	00100513          	li	a0,1
    280c:	00c12083          	lw	ra,12(sp)
    2810:	01010113          	addi	sp,sp,16
    2814:	00008067          	ret

00002818 <putchar>:
    2818:	ff010113          	addi	sp,sp,-16
    281c:	00112623          	sw	ra,12(sp)
    2820:	00812423          	sw	s0,8(sp)
    2824:	00050413          	mv	s0,a0
    2828:	000217b7          	lui	a5,0x21
    282c:	02c7a783          	lw	a5,44(a5) # 2102c <io_putch>
    2830:	0ff57513          	zext.b	a0,a0
    2834:	000780e7          	jalr	a5
    2838:	00040513          	mv	a0,s0
    283c:	00c12083          	lw	ra,12(sp)
    2840:	00812403          	lw	s0,8(sp)
    2844:	01010113          	addi	sp,sp,16
    2848:	00008067          	ret

0000284c <printf>:
    284c:	f8010113          	addi	sp,sp,-128
    2850:	04112e23          	sw	ra,92(sp)
    2854:	04812c23          	sw	s0,88(sp)
    2858:	00050413          	mv	s0,a0
    285c:	06b12223          	sw	a1,100(sp)
    2860:	06c12423          	sw	a2,104(sp)
    2864:	06d12623          	sw	a3,108(sp)
    2868:	06e12823          	sw	a4,112(sp)
    286c:	06f12a23          	sw	a5,116(sp)
    2870:	07012c23          	sw	a6,120(sp)
    2874:	07112e23          	sw	a7,124(sp)
    2878:	06410793          	addi	a5,sp,100
    287c:	00f12e23          	sw	a5,28(sp)
    2880:	00054503          	lbu	a0,0(a0)
    2884:	30050663          	beqz	a0,2b90 <printf+0x344>
    2888:	04912a23          	sw	s1,84(sp)
    288c:	05212823          	sw	s2,80(sp)
    2890:	05312623          	sw	s3,76(sp)
    2894:	05412423          	sw	s4,72(sp)
    2898:	05512223          	sw	s5,68(sp)
    289c:	05612023          	sw	s6,64(sp)
    28a0:	03712e23          	sw	s7,60(sp)
    28a4:	03812c23          	sw	s8,56(sp)
    28a8:	03a12823          	sw	s10,48(sp)
    28ac:	00000a13          	li	s4,0
    28b0:	02000993          	li	s3,32
    28b4:	00012623          	sw	zero,12(sp)
    28b8:	00000b93          	li	s7,0
    28bc:	00000493          	li	s1,0
    28c0:	02500b13          	li	s6,37
    28c4:	00021c37          	lui	s8,0x21
    28c8:	03000d13          	li	s10,48
    28cc:	03900a93          	li	s5,57
    28d0:	01500913          	li	s2,21
    28d4:	2140006f          	j	2ae8 <printf+0x29c>
    28d8:	02f00793          	li	a5,47
    28dc:	02a7f063          	bgeu	a5,a0,28fc <printf+0xb0>
    28e0:	002a1793          	slli	a5,s4,0x2
    28e4:	014787b3          	add	a5,a5,s4
    28e8:	00179793          	slli	a5,a5,0x1
    28ec:	00a787b3          	add	a5,a5,a0
    28f0:	fd078a13          	addi	s4,a5,-48
    28f4:	00040793          	mv	a5,s0
    28f8:	1e40006f          	j	2adc <printf+0x290>
    28fc:	00040793          	mv	a5,s0
    2900:	1dc0006f          	j	2adc <printf+0x290>
    2904:	00144703          	lbu	a4,1(s0)
    2908:	06c00793          	li	a5,108
    290c:	00f70863          	beq	a4,a5,291c <printf+0xd0>
    2910:	00048b93          	mv	s7,s1
    2914:	00040793          	mv	a5,s0
    2918:	1c40006f          	j	2adc <printf+0x290>
    291c:	00140793          	addi	a5,s0,1
    2920:	00912623          	sw	s1,12(sp)
    2924:	1b80006f          	j	2adc <printf+0x290>
    2928:	00021bb7          	lui	s7,0x21
    292c:	02cba783          	lw	a5,44(s7) # 2102c <io_putch>
    2930:	03000513          	li	a0,48
    2934:	000780e7          	jalr	a5
    2938:	02cba783          	lw	a5,44(s7)
    293c:	07800513          	li	a0,120
    2940:	000780e7          	jalr	a5
    2944:	01c12783          	lw	a5,28(sp)
    2948:	00478713          	addi	a4,a5,4
    294c:	00e12e23          	sw	a4,28(sp)
    2950:	0007a503          	lw	a0,0(a5)
    2954:	00000593          	li	a1,0
    2958:	00048b93          	mv	s7,s1
    295c:	000a0693          	mv	a3,s4
    2960:	00098613          	mv	a2,s3
    2964:	c75ff0ef          	jal	25d8 <puthex>
    2968:	00040793          	mv	a5,s0
    296c:	00000493          	li	s1,0
    2970:	16c0006f          	j	2adc <printf+0x290>
    2974:	fc0b98e3          	bnez	s7,2944 <printf+0xf8>
    2978:	00c12783          	lw	a5,12(sp)
    297c:	02078263          	beqz	a5,29a0 <printf+0x154>
    2980:	01c12783          	lw	a5,28(sp)
    2984:	00778793          	addi	a5,a5,7
    2988:	ff87f793          	andi	a5,a5,-8
    298c:	00878713          	addi	a4,a5,8
    2990:	00e12e23          	sw	a4,28(sp)
    2994:	0007a503          	lw	a0,0(a5)
    2998:	0047a583          	lw	a1,4(a5)
    299c:	fc1ff06f          	j	295c <printf+0x110>
    29a0:	01c12783          	lw	a5,28(sp)
    29a4:	00478713          	addi	a4,a5,4
    29a8:	00e12e23          	sw	a4,28(sp)
    29ac:	0007a503          	lw	a0,0(a5)
    29b0:	00000593          	li	a1,0
    29b4:	00c12b83          	lw	s7,12(sp)
    29b8:	fa5ff06f          	j	295c <printf+0x110>
    29bc:	03912a23          	sw	s9,52(sp)
    29c0:	03b12623          	sw	s11,44(sp)
    29c4:	040b8663          	beqz	s7,2a10 <printf+0x1c4>
    29c8:	01c12783          	lw	a5,28(sp)
    29cc:	00478713          	addi	a4,a5,4
    29d0:	00e12e23          	sw	a4,28(sp)
    29d4:	0007ad83          	lw	s11,0(a5)
    29d8:	41fddc93          	srai	s9,s11,0x1f
    29dc:	060cca63          	bltz	s9,2a50 <printf+0x204>
    29e0:	00000493          	li	s1,0
    29e4:	000a0713          	mv	a4,s4
    29e8:	00098693          	mv	a3,s3
    29ec:	00048613          	mv	a2,s1
    29f0:	000d8513          	mv	a0,s11
    29f4:	000c8593          	mv	a1,s9
    29f8:	ca9ff0ef          	jal	26a0 <putdec>
    29fc:	00040793          	mv	a5,s0
    2a00:	00000493          	li	s1,0
    2a04:	03412c83          	lw	s9,52(sp)
    2a08:	02c12d83          	lw	s11,44(sp)
    2a0c:	0d00006f          	j	2adc <printf+0x290>
    2a10:	00c12783          	lw	a5,12(sp)
    2a14:	02078263          	beqz	a5,2a38 <printf+0x1ec>
    2a18:	01c12783          	lw	a5,28(sp)
    2a1c:	00778793          	addi	a5,a5,7
    2a20:	ff87f793          	andi	a5,a5,-8
    2a24:	00878713          	addi	a4,a5,8
    2a28:	00e12e23          	sw	a4,28(sp)
    2a2c:	0007ad83          	lw	s11,0(a5)
    2a30:	0047ac83          	lw	s9,4(a5)
    2a34:	fa9ff06f          	j	29dc <printf+0x190>
    2a38:	01c12783          	lw	a5,28(sp)
    2a3c:	00478713          	addi	a4,a5,4
    2a40:	00e12e23          	sw	a4,28(sp)
    2a44:	0007ad83          	lw	s11,0(a5)
    2a48:	41fddc93          	srai	s9,s11,0x1f
    2a4c:	f91ff06f          	j	29dc <printf+0x190>
    2a50:	03000793          	li	a5,48
    2a54:	00f98e63          	beq	s3,a5,2a70 <printf+0x224>
    2a58:	01b037b3          	snez	a5,s11
    2a5c:	41900cb3          	neg	s9,s9
    2a60:	40fc8cb3          	sub	s9,s9,a5
    2a64:	41b00db3          	neg	s11,s11
    2a68:	fffa0a13          	addi	s4,s4,-1
    2a6c:	f79ff06f          	j	29e4 <printf+0x198>
    2a70:	000217b7          	lui	a5,0x21
    2a74:	02c7a783          	lw	a5,44(a5) # 2102c <io_putch>
    2a78:	02d00513          	li	a0,45
    2a7c:	000780e7          	jalr	a5
    2a80:	fd9ff06f          	j	2a58 <printf+0x20c>
    2a84:	01c12783          	lw	a5,28(sp)
    2a88:	00478713          	addi	a4,a5,4
    2a8c:	00e12e23          	sw	a4,28(sp)
    2a90:	0007a503          	lw	a0,0(a5)
    2a94:	d11ff0ef          	jal	27a4 <putline>
    2a98:	00040793          	mv	a5,s0
    2a9c:	00000493          	li	s1,0
    2aa0:	03c0006f          	j	2adc <printf+0x290>
    2aa4:	000217b7          	lui	a5,0x21
    2aa8:	02c7a703          	lw	a4,44(a5) # 2102c <io_putch>
    2aac:	01c12783          	lw	a5,28(sp)
    2ab0:	00478693          	addi	a3,a5,4
    2ab4:	00d12e23          	sw	a3,28(sp)
    2ab8:	0007c503          	lbu	a0,0(a5)
    2abc:	000700e7          	jalr	a4
    2ac0:	00040793          	mv	a5,s0
    2ac4:	00000493          	li	s1,0
    2ac8:	0140006f          	j	2adc <printf+0x290>
    2acc:	05650a63          	beq	a0,s6,2b20 <printf+0x2d4>
    2ad0:	02cc2783          	lw	a5,44(s8) # 2102c <io_putch>
    2ad4:	000780e7          	jalr	a5
    2ad8:	00040793          	mv	a5,s0
    2adc:	00178413          	addi	s0,a5,1
    2ae0:	0017c503          	lbu	a0,1(a5)
    2ae4:	08050463          	beqz	a0,2b6c <printf+0x320>
    2ae8:	fe0482e3          	beqz	s1,2acc <printf+0x280>
    2aec:	deaaf6e3          	bgeu	s5,a0,28d8 <printf+0x8c>
    2af0:	f9d50793          	addi	a5,a0,-99
    2af4:	0ff7f793          	zext.b	a5,a5
    2af8:	06f96663          	bltu	s2,a5,2b64 <printf+0x318>
    2afc:	f9d50513          	addi	a0,a0,-99
    2b00:	0ff57793          	zext.b	a5,a0
    2b04:	04f96c63          	bltu	s2,a5,2b5c <printf+0x310>
    2b08:	00279513          	slli	a0,a5,0x2
    2b0c:	000207b7          	lui	a5,0x20
    2b10:	0a478793          	addi	a5,a5,164 # 200a4 <DATA_START+0xa4>
    2b14:	00f50533          	add	a0,a0,a5
    2b18:	00052783          	lw	a5,0(a0)
    2b1c:	00078067          	jr	a5
    2b20:	00144983          	lbu	s3,1(s0)
    2b24:	03a98063          	beq	s3,s10,2b44 <printf+0x2f8>
    2b28:	00048a13          	mv	s4,s1
    2b2c:	00912623          	sw	s1,12(sp)
    2b30:	00048b93          	mv	s7,s1
    2b34:	00040793          	mv	a5,s0
    2b38:	02000993          	li	s3,32
    2b3c:	00100493          	li	s1,1
    2b40:	f9dff06f          	j	2adc <printf+0x290>
    2b44:	00140793          	addi	a5,s0,1
    2b48:	00048a13          	mv	s4,s1
    2b4c:	00912623          	sw	s1,12(sp)
    2b50:	00048b93          	mv	s7,s1
    2b54:	00100493          	li	s1,1
    2b58:	f85ff06f          	j	2adc <printf+0x290>
    2b5c:	00040793          	mv	a5,s0
    2b60:	f7dff06f          	j	2adc <printf+0x290>
    2b64:	00040793          	mv	a5,s0
    2b68:	f75ff06f          	j	2adc <printf+0x290>
    2b6c:	05412483          	lw	s1,84(sp)
    2b70:	05012903          	lw	s2,80(sp)
    2b74:	04c12983          	lw	s3,76(sp)
    2b78:	04812a03          	lw	s4,72(sp)
    2b7c:	04412a83          	lw	s5,68(sp)
    2b80:	04012b03          	lw	s6,64(sp)
    2b84:	03c12b83          	lw	s7,60(sp)
    2b88:	03812c03          	lw	s8,56(sp)
    2b8c:	03012d03          	lw	s10,48(sp)
    2b90:	00000513          	li	a0,0
    2b94:	05c12083          	lw	ra,92(sp)
    2b98:	05812403          	lw	s0,88(sp)
    2b9c:	08010113          	addi	sp,sp,128
    2ba0:	00008067          	ret

00002ba4 <_io_putch>:
    2ba4:	000217b7          	lui	a5,0x21
    2ba8:	00021737          	lui	a4,0x21
    2bac:	15c72703          	lw	a4,348(a4) # 2115c <UART_CHAN_ID>
    2bb0:	00271713          	slli	a4,a4,0x2
    2bb4:	03078793          	addi	a5,a5,48 # 21030 <_uart>
    2bb8:	00e787b3          	add	a5,a5,a4
    2bbc:	0007a703          	lw	a4,0(a5)
    2bc0:	00472783          	lw	a5,4(a4)
    2bc4:	0017f793          	andi	a5,a5,1
    2bc8:	fe079ce3          	bnez	a5,2bc0 <_io_putch+0x1c>
    2bcc:	00a70023          	sb	a0,0(a4)
    2bd0:	00008067          	ret

00002bd4 <_io_getch>:
    2bd4:	000217b7          	lui	a5,0x21
    2bd8:	00021737          	lui	a4,0x21
    2bdc:	15c72703          	lw	a4,348(a4) # 2115c <UART_CHAN_ID>
    2be0:	00271713          	slli	a4,a4,0x2
    2be4:	03078793          	addi	a5,a5,48 # 21030 <_uart>
    2be8:	00e787b3          	add	a5,a5,a4
    2bec:	0007a703          	lw	a4,0(a5)
    2bf0:	00472783          	lw	a5,4(a4)
    2bf4:	0087f793          	andi	a5,a5,8
    2bf8:	fe079ce3          	bnez	a5,2bf0 <_io_getch+0x1c>
    2bfc:	00074503          	lbu	a0,0(a4)
    2c00:	00008067          	ret

00002c04 <_io_init>:
    2c04:	000217b7          	lui	a5,0x21
    2c08:	03078793          	addi	a5,a5,48 # 21030 <_uart>
    2c0c:	0007a683          	lw	a3,0(a5)
    2c10:	06f00713          	li	a4,111
    2c14:	00e6a223          	sw	a4,4(a3)
    2c18:	0047a783          	lw	a5,4(a5)
    2c1c:	00e7a223          	sw	a4,4(a5)
    2c20:	00008067          	ret

00002c24 <set_uart_ID>:
    2c24:	00a03533          	snez	a0,a0
    2c28:	000217b7          	lui	a5,0x21
    2c2c:	14a7ae23          	sw	a0,348(a5) # 2115c <UART_CHAN_ID>
    2c30:	00008067          	ret

00002c34 <UARTBuf_reset>:
    2c34:	00052223          	sw	zero,4(a0)
    2c38:	00052423          	sw	zero,8(a0)
    2c3c:	000500a3          	sb	zero,1(a0)
    2c40:	00050023          	sb	zero,0(a0)
    2c44:	00052623          	sw	zero,12(a0)
    2c48:	00052823          	sw	zero,16(a0)
    2c4c:	00008067          	ret

00002c50 <UARTBuf_buffered_size>:
    2c50:	00852783          	lw	a5,8(a0)
    2c54:	00452703          	lw	a4,4(a0)
    2c58:	40e78533          	sub	a0,a5,a4
    2c5c:	00054463          	bltz	a0,2c64 <UARTBuf_buffered_size+0x14>
    2c60:	00008067          	ret
    2c64:	02850513          	addi	a0,a0,40
    2c68:	00008067          	ret

00002c6c <UARTBuf_write>:
    2c6c:	00154783          	lbu	a5,1(a0)
    2c70:	00078463          	beqz	a5,2c78 <UARTBuf_write+0xc>
    2c74:	00008067          	ret
    2c78:	00852783          	lw	a5,8(a0)
    2c7c:	00f507b3          	add	a5,a0,a5
    2c80:	00b78a23          	sb	a1,20(a5)
    2c84:	00452683          	lw	a3,4(a0)
    2c88:	00852783          	lw	a5,8(a0)
    2c8c:	02700613          	li	a2,39
    2c90:	00000713          	li	a4,0
    2c94:	00c78463          	beq	a5,a2,2c9c <UARTBuf_write+0x30>
    2c98:	00178713          	addi	a4,a5,1
    2c9c:	00100793          	li	a5,1
    2ca0:	00f50023          	sb	a5,0(a0)
    2ca4:	40e687b3          	sub	a5,a3,a4
    2ca8:	0017b793          	seqz	a5,a5
    2cac:	00f500a3          	sb	a5,1(a0)
    2cb0:	00d52223          	sw	a3,4(a0)
    2cb4:	00e52423          	sw	a4,8(a0)
    2cb8:	00008067          	ret

00002cbc <UARTBuf_read>:
    2cbc:	00050793          	mv	a5,a0
    2cc0:	00054703          	lbu	a4,0(a0)
    2cc4:	0ff77513          	zext.b	a0,a4
    2cc8:	00071463          	bnez	a4,2cd0 <UARTBuf_read+0x14>
    2ccc:	00008067          	ret
    2cd0:	0047a703          	lw	a4,4(a5)
    2cd4:	00e78733          	add	a4,a5,a4
    2cd8:	01474503          	lbu	a0,20(a4)
    2cdc:	0ff57513          	zext.b	a0,a0
    2ce0:	0047a703          	lw	a4,4(a5)
    2ce4:	0087a603          	lw	a2,8(a5)
    2ce8:	02700593          	li	a1,39
    2cec:	00000693          	li	a3,0
    2cf0:	00b70463          	beq	a4,a1,2cf8 <UARTBuf_read+0x3c>
    2cf4:	00170693          	addi	a3,a4,1
    2cf8:	40d60733          	sub	a4,a2,a3
    2cfc:	00e03733          	snez	a4,a4
    2d00:	00e78023          	sb	a4,0(a5)
    2d04:	000780a3          	sb	zero,1(a5)
    2d08:	00d7a223          	sw	a3,4(a5)
    2d0c:	00c7a423          	sw	a2,8(a5)
    2d10:	00008067          	ret

00002d14 <UARTBuf_read_last>:
    2d14:	00852783          	lw	a5,8(a0)
    2d18:	00079a63          	bnez	a5,2d2c <UARTBuf_read_last+0x18>
    2d1c:	00054703          	lbu	a4,0(a0)
    2d20:	00070863          	beqz	a4,2d30 <UARTBuf_read_last+0x1c>
    2d24:	02700793          	li	a5,39
    2d28:	0080006f          	j	2d30 <UARTBuf_read_last+0x1c>
    2d2c:	fff78793          	addi	a5,a5,-1
    2d30:	00f50533          	add	a0,a0,a5
    2d34:	01454503          	lbu	a0,20(a0)
    2d38:	00008067          	ret

00002d3c <flush_UART>:
    2d3c:	000217b7          	lui	a5,0x21
    2d40:	0307a683          	lw	a3,48(a5) # 21030 <_uart>
    2d44:	00021737          	lui	a4,0x21
    2d48:	05070793          	addi	a5,a4,80 # 21050 <UART_BUF_TX>
    2d4c:	0007c783          	lbu	a5,0(a5)
    2d50:	fe079ce3          	bnez	a5,2d48 <flush_UART+0xc>
    2d54:	0046a783          	lw	a5,4(a3)
    2d58:	0027f793          	andi	a5,a5,2
    2d5c:	fe0786e3          	beqz	a5,2d48 <flush_UART+0xc>
    2d60:	000217b7          	lui	a5,0x21
    2d64:	0347a683          	lw	a3,52(a5) # 21034 <_uart+0x4>
    2d68:	00021737          	lui	a4,0x21
    2d6c:	05070793          	addi	a5,a4,80 # 21050 <UART_BUF_TX>
    2d70:	03c7c783          	lbu	a5,60(a5)
    2d74:	fe079ce3          	bnez	a5,2d6c <flush_UART+0x30>
    2d78:	0046a783          	lw	a5,4(a3)
    2d7c:	0027f793          	andi	a5,a5,2
    2d80:	fe0786e3          	beqz	a5,2d6c <flush_UART+0x30>
    2d84:	00008067          	ret

00002d88 <_io_fini>:
    2d88:	ff010113          	addi	sp,sp,-16
    2d8c:	00112623          	sw	ra,12(sp)
    2d90:	fadff0ef          	jal	2d3c <flush_UART>
    2d94:	00c12083          	lw	ra,12(sp)
    2d98:	01010113          	addi	sp,sp,16
    2d9c:	00008067          	ret

00002da0 <UARTBuf_reset_all>:
    2da0:	ff010113          	addi	sp,sp,-16
    2da4:	00112623          	sw	ra,12(sp)
    2da8:	00812423          	sw	s0,8(sp)
    2dac:	00021537          	lui	a0,0x21
    2db0:	05050413          	addi	s0,a0,80 # 21050 <UART_BUF_TX>
    2db4:	05050513          	addi	a0,a0,80
    2db8:	e7dff0ef          	jal	2c34 <UARTBuf_reset>
    2dbc:	03c40513          	addi	a0,s0,60
    2dc0:	e75ff0ef          	jal	2c34 <UARTBuf_reset>
    2dc4:	07840513          	addi	a0,s0,120
    2dc8:	e6dff0ef          	jal	2c34 <UARTBuf_reset>
    2dcc:	0b440513          	addi	a0,s0,180
    2dd0:	e65ff0ef          	jal	2c34 <UARTBuf_reset>
    2dd4:	00c12083          	lw	ra,12(sp)
    2dd8:	00812403          	lw	s0,8(sp)
    2ddc:	01010113          	addi	sp,sp,16
    2de0:	00008067          	ret

00002de4 <enable_BUTTON_interrupt>:
    2de4:	000037b7          	lui	a5,0x3
    2de8:	6d878793          	addi	a5,a5,1752 # 36d8 <_mhandler>
    2dec:	30579073          	csrw	mtvec,a5
    2df0:	000217b7          	lui	a5,0x21
    2df4:	03c7a703          	lw	a4,60(a5) # 2103c <sysctrl>
    2df8:	00872783          	lw	a5,8(a4)
    2dfc:	07c7e793          	ori	a5,a5,124
    2e00:	00f72423          	sw	a5,8(a4)
    2e04:	000017b7          	lui	a5,0x1
    2e08:	80078793          	addi	a5,a5,-2048 # 800 <_start-0x800>
    2e0c:	3047a073          	csrs	mie,a5
    2e10:	30046073          	csrsi	mstatus,8
    2e14:	00008067          	ret

00002e18 <enable_UART_interrupt>:
    2e18:	ff010113          	addi	sp,sp,-16
    2e1c:	00112623          	sw	ra,12(sp)
    2e20:	f81ff0ef          	jal	2da0 <UARTBuf_reset_all>
    2e24:	00021737          	lui	a4,0x21
    2e28:	000037b7          	lui	a5,0x3
    2e2c:	49078793          	addi	a5,a5,1168 # 3490 <_UARTBuf_putch>
    2e30:	02f72623          	sw	a5,44(a4) # 2102c <io_putch>
    2e34:	00021737          	lui	a4,0x21
    2e38:	000037b7          	lui	a5,0x3
    2e3c:	53078793          	addi	a5,a5,1328 # 3530 <_UARTBuf_getch>
    2e40:	02f72423          	sw	a5,40(a4) # 21028 <io_getch>
    2e44:	000217b7          	lui	a5,0x21
    2e48:	03c7a703          	lw	a4,60(a5) # 2103c <sysctrl>
    2e4c:	00872783          	lw	a5,8(a4)
    2e50:	0037e793          	ori	a5,a5,3
    2e54:	00f72423          	sw	a5,8(a4)
    2e58:	000017b7          	lui	a5,0x1
    2e5c:	80078793          	addi	a5,a5,-2048 # 800 <_start-0x800>
    2e60:	3047a073          	csrs	mie,a5
    2e64:	30046073          	csrsi	mstatus,8
    2e68:	000037b7          	lui	a5,0x3
    2e6c:	6d878793          	addi	a5,a5,1752 # 36d8 <_mhandler>
    2e70:	30579073          	csrw	mtvec,a5
    2e74:	00c12083          	lw	ra,12(sp)
    2e78:	01010113          	addi	sp,sp,16
    2e7c:	00008067          	ret

00002e80 <disable_UART_interrupt>:
    2e80:	ff010113          	addi	sp,sp,-16
    2e84:	00112623          	sw	ra,12(sp)
    2e88:	000217b7          	lui	a5,0x21
    2e8c:	0307a703          	lw	a4,48(a5) # 21030 <_uart>
    2e90:	00472783          	lw	a5,4(a4)
    2e94:	0107f793          	andi	a5,a5,16
    2e98:	fe079ce3          	bnez	a5,2e90 <disable_UART_interrupt+0x10>
    2e9c:	000217b7          	lui	a5,0x21
    2ea0:	0347a703          	lw	a4,52(a5) # 21034 <_uart+0x4>
    2ea4:	00472783          	lw	a5,4(a4)
    2ea8:	0107f793          	andi	a5,a5,16
    2eac:	fe079ce3          	bnez	a5,2ea4 <disable_UART_interrupt+0x24>
    2eb0:	00021737          	lui	a4,0x21
    2eb4:	000037b7          	lui	a5,0x3
    2eb8:	ba478793          	addi	a5,a5,-1116 # 2ba4 <_io_putch>
    2ebc:	02f72623          	sw	a5,44(a4) # 2102c <io_putch>
    2ec0:	00021737          	lui	a4,0x21
    2ec4:	000037b7          	lui	a5,0x3
    2ec8:	bd478793          	addi	a5,a5,-1068 # 2bd4 <_io_getch>
    2ecc:	02f72423          	sw	a5,40(a4) # 21028 <io_getch>
    2ed0:	000217b7          	lui	a5,0x21
    2ed4:	03c7a703          	lw	a4,60(a5) # 2103c <sysctrl>
    2ed8:	00872783          	lw	a5,8(a4)
    2edc:	ffc7f793          	andi	a5,a5,-4
    2ee0:	00f72423          	sw	a5,8(a4)
    2ee4:	30047073          	csrci	mstatus,8
    2ee8:	eb9ff0ef          	jal	2da0 <UARTBuf_reset_all>
    2eec:	00c12083          	lw	ra,12(sp)
    2ef0:	01010113          	addi	sp,sp,16
    2ef4:	00008067          	ret

00002ef8 <UARTintr_handler>:
    2ef8:	fe010113          	addi	sp,sp,-32
    2efc:	00112e23          	sw	ra,28(sp)
    2f00:	00812c23          	sw	s0,24(sp)
    2f04:	00912a23          	sw	s1,20(sp)
    2f08:	01212823          	sw	s2,16(sp)
    2f0c:	01312623          	sw	s3,12(sp)
    2f10:	01412423          	sw	s4,8(sp)
    2f14:	01512223          	sw	s5,4(sp)
    2f18:	00050993          	mv	s3,a0
    2f1c:	000217b7          	lui	a5,0x21
    2f20:	00251713          	slli	a4,a0,0x2
    2f24:	03078793          	addi	a5,a5,48 # 21030 <_uart>
    2f28:	00e787b3          	add	a5,a5,a4
    2f2c:	0007a483          	lw	s1,0(a5)
    2f30:	00451a93          	slli	s5,a0,0x4
    2f34:	40aa8ab3          	sub	s5,s5,a0
    2f38:	002a9a93          	slli	s5,s5,0x2
    2f3c:	00021437          	lui	s0,0x21
    2f40:	05040413          	addi	s0,s0,80 # 21050 <UART_BUF_TX>
    2f44:	01540433          	add	s0,s0,s5
    2f48:	00044783          	lbu	a5,0(s0)
    2f4c:	02078463          	beqz	a5,2f74 <UARTintr_handler+0x7c>
    2f50:	00040913          	mv	s2,s0
    2f54:	0044a783          	lw	a5,4(s1)
    2f58:	0017f793          	andi	a5,a5,1
    2f5c:	00079c63          	bnez	a5,2f74 <UARTintr_handler+0x7c>
    2f60:	00040513          	mv	a0,s0
    2f64:	d59ff0ef          	jal	2cbc <UARTBuf_read>
    2f68:	00a48023          	sb	a0,0(s1)
    2f6c:	00094783          	lbu	a5,0(s2)
    2f70:	fe0792e3          	bnez	a5,2f54 <UARTintr_handler+0x5c>
    2f74:	000217b7          	lui	a5,0x21
    2f78:	05078793          	addi	a5,a5,80 # 21050 <UART_BUF_TX>
    2f7c:	07878a13          	addi	s4,a5,120
    2f80:	015a0a33          	add	s4,s4,s5
    2f84:	00499713          	slli	a4,s3,0x4
    2f88:	41370733          	sub	a4,a4,s3
    2f8c:	00271713          	slli	a4,a4,0x2
    2f90:	00e787b3          	add	a5,a5,a4
    2f94:	0797c783          	lbu	a5,121(a5)
    2f98:	06079263          	bnez	a5,2ffc <UARTintr_handler+0x104>
    2f9c:	01a00a93          	li	s5,26
    2fa0:	00021937          	lui	s2,0x21
    2fa4:	05090913          	addi	s2,s2,80 # 21050 <UART_BUF_TX>
    2fa8:	00e90933          	add	s2,s2,a4
    2fac:	0140006f          	j	2fc0 <UARTintr_handler+0xc8>
    2fb0:	00100793          	li	a5,1
    2fb4:	08f92423          	sw	a5,136(s2)
    2fb8:	07994783          	lbu	a5,121(s2)
    2fbc:	04079063          	bnez	a5,2ffc <UARTintr_handler+0x104>
    2fc0:	0044a783          	lw	a5,4(s1)
    2fc4:	0087f793          	andi	a5,a5,8
    2fc8:	02079a63          	bnez	a5,2ffc <UARTintr_handler+0x104>
    2fcc:	0004c403          	lbu	s0,0(s1)
    2fd0:	0ff47413          	zext.b	s0,s0
    2fd4:	00040593          	mv	a1,s0
    2fd8:	000a0513          	mv	a0,s4
    2fdc:	c91ff0ef          	jal	2c6c <UARTBuf_write>
    2fe0:	fd5408e3          	beq	s0,s5,2fb0 <UARTintr_handler+0xb8>
    2fe4:	00a00793          	li	a5,10
    2fe8:	fcf418e3          	bne	s0,a5,2fb8 <UARTintr_handler+0xc0>
    2fec:	08492783          	lw	a5,132(s2)
    2ff0:	00178793          	addi	a5,a5,1
    2ff4:	08f92223          	sw	a5,132(s2)
    2ff8:	fc1ff06f          	j	2fb8 <UARTintr_handler+0xc0>
    2ffc:	01c12083          	lw	ra,28(sp)
    3000:	01812403          	lw	s0,24(sp)
    3004:	01412483          	lw	s1,20(sp)
    3008:	01012903          	lw	s2,16(sp)
    300c:	00c12983          	lw	s3,12(sp)
    3010:	00812a03          	lw	s4,8(sp)
    3014:	00412a83          	lw	s5,4(sp)
    3018:	02010113          	addi	sp,sp,32
    301c:	00008067          	ret

00003020 <ext_intr_handler>:
    3020:	ff010113          	addi	sp,sp,-16
    3024:	00112623          	sw	ra,12(sp)
    3028:	00812423          	sw	s0,8(sp)
    302c:	000217b7          	lui	a5,0x21
    3030:	03c7a783          	lw	a5,60(a5) # 2103c <sysctrl>
    3034:	0007a403          	lw	s0,0(a5)
    3038:	00147793          	andi	a5,s0,1
    303c:	02079663          	bnez	a5,3068 <ext_intr_handler+0x48>
    3040:	00247413          	andi	s0,s0,2
    3044:	02041863          	bnez	s0,3074 <ext_intr_handler+0x54>
    3048:	000217b7          	lui	a5,0x21
    304c:	03c7a783          	lw	a5,60(a5) # 2103c <sysctrl>
    3050:	07f00713          	li	a4,127
    3054:	00e7a023          	sw	a4,0(a5)
    3058:	00c12083          	lw	ra,12(sp)
    305c:	00812403          	lw	s0,8(sp)
    3060:	01010113          	addi	sp,sp,16
    3064:	00008067          	ret
    3068:	00000513          	li	a0,0
    306c:	e8dff0ef          	jal	2ef8 <UARTintr_handler>
    3070:	fd1ff06f          	j	3040 <ext_intr_handler+0x20>
    3074:	00100513          	li	a0,1
    3078:	e81ff0ef          	jal	2ef8 <UARTintr_handler>
    307c:	fcdff06f          	j	3048 <ext_intr_handler+0x28>

00003080 <mhandler>:
    3080:	342027f3          	csrr	a5,mcause
    3084:	0007c463          	bltz	a5,308c <mhandler+0xc>
    3088:	00008067          	ret
    308c:	ff010113          	addi	sp,sp,-16
    3090:	00112623          	sw	ra,12(sp)
    3094:	0ff7f793          	zext.b	a5,a5
    3098:	00700713          	li	a4,7
    309c:	00e78e63          	beq	a5,a4,30b8 <mhandler+0x38>
    30a0:	00b00713          	li	a4,11
    30a4:	00e79463          	bne	a5,a4,30ac <mhandler+0x2c>
    30a8:	f79ff0ef          	jal	3020 <ext_intr_handler>
    30ac:	00c12083          	lw	ra,12(sp)
    30b0:	01010113          	addi	sp,sp,16
    30b4:	00008067          	ret
    30b8:	000217b7          	lui	a5,0x21
    30bc:	03c7a583          	lw	a1,60(a5) # 2103c <sysctrl>
    30c0:	0105a603          	lw	a2,16(a1)
    30c4:	0145a683          	lw	a3,20(a1)
    30c8:	000217b7          	lui	a5,0x21
    30cc:	1507a783          	lw	a5,336(a5) # 21150 <mtimer_interval>
    30d0:	41f7d713          	srai	a4,a5,0x1f
    30d4:	00c78533          	add	a0,a5,a2
    30d8:	00f537b3          	sltu	a5,a0,a5
    30dc:	00d70733          	add	a4,a4,a3
    30e0:	00e786b3          	add	a3,a5,a4
    30e4:	00a5ac23          	sw	a0,24(a1)
    30e8:	00d5ae23          	sw	a3,28(a1)
    30ec:	000217b7          	lui	a5,0x21
    30f0:	14c7a783          	lw	a5,332(a5) # 2114c <timer_interrupt_hook>
    30f4:	fa078ce3          	beqz	a5,30ac <mhandler+0x2c>
    30f8:	000780e7          	jalr	a5
    30fc:	fb1ff06f          	j	30ac <mhandler+0x2c>

00003100 <set_gpio_string>:
    3100:	000217b7          	lui	a5,0x21
    3104:	0387a783          	lw	a5,56(a5) # 21038 <gpio>
    3108:	00a7a223          	sw	a0,4(a5)
    310c:	00b7a423          	sw	a1,8(a5)
    3110:	00008067          	ret

00003114 <convert_char_seg7>:
    3114:	fe050513          	addi	a0,a0,-32
    3118:	05a00793          	li	a5,90
    311c:	14a7ee63          	bltu	a5,a0,3278 <convert_char_seg7+0x164>
    3120:	00251513          	slli	a0,a0,0x2
    3124:	000207b7          	lui	a5,0x20
    3128:	0fc78793          	addi	a5,a5,252 # 200fc <DATA_START+0xfc>
    312c:	00f50533          	add	a0,a0,a5
    3130:	00052783          	lw	a5,0(a0)
    3134:	00078067          	jr	a5
    3138:	03f00513          	li	a0,63
    313c:	00008067          	ret
    3140:	05b00513          	li	a0,91
    3144:	00008067          	ret
    3148:	04f00513          	li	a0,79
    314c:	00008067          	ret
    3150:	06600513          	li	a0,102
    3154:	00008067          	ret
    3158:	06d00513          	li	a0,109
    315c:	00008067          	ret
    3160:	07d00513          	li	a0,125
    3164:	00008067          	ret
    3168:	02700513          	li	a0,39
    316c:	00008067          	ret
    3170:	07f00513          	li	a0,127
    3174:	00008067          	ret
    3178:	06f00513          	li	a0,111
    317c:	00008067          	ret
    3180:	07700513          	li	a0,119
    3184:	00008067          	ret
    3188:	07c00513          	li	a0,124
    318c:	00008067          	ret
    3190:	03900513          	li	a0,57
    3194:	00008067          	ret
    3198:	05e00513          	li	a0,94
    319c:	00008067          	ret
    31a0:	07900513          	li	a0,121
    31a4:	00008067          	ret
    31a8:	07100513          	li	a0,113
    31ac:	00008067          	ret
    31b0:	03d00513          	li	a0,61
    31b4:	00008067          	ret
    31b8:	07600513          	li	a0,118
    31bc:	00008067          	ret
    31c0:	00400513          	li	a0,4
    31c4:	00008067          	ret
    31c8:	00e00513          	li	a0,14
    31cc:	00008067          	ret
    31d0:	07800513          	li	a0,120
    31d4:	00008067          	ret
    31d8:	03800513          	li	a0,56
    31dc:	00008067          	ret
    31e0:	03700513          	li	a0,55
    31e4:	00008067          	ret
    31e8:	05400513          	li	a0,84
    31ec:	00008067          	ret
    31f0:	05c00513          	li	a0,92
    31f4:	00008067          	ret
    31f8:	07300513          	li	a0,115
    31fc:	00008067          	ret
    3200:	06700513          	li	a0,103
    3204:	00008067          	ret
    3208:	05000513          	li	a0,80
    320c:	00008067          	ret
    3210:	0ed00513          	li	a0,237
    3214:	00008067          	ret
    3218:	07000513          	li	a0,112
    321c:	00008067          	ret
    3220:	03e00513          	li	a0,62
    3224:	00008067          	ret
    3228:	01c00513          	li	a0,28
    322c:	00008067          	ret
    3230:	0be00513          	li	a0,190
    3234:	00008067          	ret
    3238:	0f600513          	li	a0,246
    323c:	00008067          	ret
    3240:	06e00513          	li	a0,110
    3244:	00008067          	ret
    3248:	0db00513          	li	a0,219
    324c:	00008067          	ret
    3250:	04000513          	li	a0,64
    3254:	00008067          	ret
    3258:	00800513          	li	a0,8
    325c:	00008067          	ret
    3260:	08000513          	li	a0,128
    3264:	00008067          	ret
    3268:	00000513          	li	a0,0
    326c:	00008067          	ret
    3270:	04800513          	li	a0,72
    3274:	00008067          	ret
    3278:	00000513          	li	a0,0
    327c:	00008067          	ret
    3280:	00600513          	li	a0,6
    3284:	00008067          	ret

00003288 <convert_hex_char>:
    3288:	00f57513          	andi	a0,a0,15
    328c:	00900793          	li	a5,9
    3290:	00a7c663          	blt	a5,a0,329c <convert_hex_char+0x14>
    3294:	03050513          	addi	a0,a0,48
    3298:	00008067          	ret
    329c:	05750513          	addi	a0,a0,87
    32a0:	00008067          	ret

000032a4 <convert_unsigned_hex_str>:
    32a4:	ff010113          	addi	sp,sp,-16
    32a8:	00112623          	sw	ra,12(sp)
    32ac:	00812423          	sw	s0,8(sp)
    32b0:	00912223          	sw	s1,4(sp)
    32b4:	01212023          	sw	s2,0(sp)
    32b8:	00050493          	mv	s1,a0
    32bc:	00c55513          	srli	a0,a0,0xc
    32c0:	fc9ff0ef          	jal	3288 <convert_hex_char>
    32c4:	00050413          	mv	s0,a0
    32c8:	0084d513          	srli	a0,s1,0x8
    32cc:	fbdff0ef          	jal	3288 <convert_hex_char>
    32d0:	01841413          	slli	s0,s0,0x18
    32d4:	01051513          	slli	a0,a0,0x10
    32d8:	00a46433          	or	s0,s0,a0
    32dc:	0044d513          	srli	a0,s1,0x4
    32e0:	fa9ff0ef          	jal	3288 <convert_hex_char>
    32e4:	00050913          	mv	s2,a0
    32e8:	00048513          	mv	a0,s1
    32ec:	f9dff0ef          	jal	3288 <convert_hex_char>
    32f0:	00891913          	slli	s2,s2,0x8
    32f4:	00a46533          	or	a0,s0,a0
    32f8:	00a96533          	or	a0,s2,a0
    32fc:	00c12083          	lw	ra,12(sp)
    3300:	00812403          	lw	s0,8(sp)
    3304:	00412483          	lw	s1,4(sp)
    3308:	00012903          	lw	s2,0(sp)
    330c:	01010113          	addi	sp,sp,16
    3310:	00008067          	ret

00003314 <set_gpio_error>:
    3314:	fe010113          	addi	sp,sp,-32
    3318:	00112e23          	sw	ra,28(sp)
    331c:	00812c23          	sw	s0,24(sp)
    3320:	00912a23          	sw	s1,20(sp)
    3324:	01212823          	sw	s2,16(sp)
    3328:	01312623          	sw	s3,12(sp)
    332c:	01412423          	sw	s4,8(sp)
    3330:	01512223          	sw	s5,4(sp)
    3334:	01612023          	sw	s6,0(sp)
    3338:	f6dff0ef          	jal	32a4 <convert_unsigned_hex_str>
    333c:	00050a93          	mv	s5,a0
    3340:	06500513          	li	a0,101
    3344:	dd1ff0ef          	jal	3114 <convert_char_seg7>
    3348:	00050493          	mv	s1,a0
    334c:	07200513          	li	a0,114
    3350:	dc5ff0ef          	jal	3114 <convert_char_seg7>
    3354:	00050413          	mv	s0,a0
    3358:	01849493          	slli	s1,s1,0x18
    335c:	01051793          	slli	a5,a0,0x10
    3360:	00f4e4b3          	or	s1,s1,a5
    3364:	02d00513          	li	a0,45
    3368:	dadff0ef          	jal	3114 <convert_char_seg7>
    336c:	00050b13          	mv	s6,a0
    3370:	018ad513          	srli	a0,s5,0x18
    3374:	da1ff0ef          	jal	3114 <convert_char_seg7>
    3378:	00050a13          	mv	s4,a0
    337c:	010ad513          	srli	a0,s5,0x10
    3380:	0ff57513          	zext.b	a0,a0
    3384:	d91ff0ef          	jal	3114 <convert_char_seg7>
    3388:	00050993          	mv	s3,a0
    338c:	008ad513          	srli	a0,s5,0x8
    3390:	0ff57513          	zext.b	a0,a0
    3394:	d81ff0ef          	jal	3114 <convert_char_seg7>
    3398:	00050913          	mv	s2,a0
    339c:	0ffaf513          	zext.b	a0,s5
    33a0:	d75ff0ef          	jal	3114 <convert_char_seg7>
    33a4:	00841793          	slli	a5,s0,0x8
    33a8:	0097e7b3          	or	a5,a5,s1
    33ac:	0167e7b3          	or	a5,a5,s6
    33b0:	008a5693          	srli	a3,s4,0x8
    33b4:	018a1a13          	slli	s4,s4,0x18
    33b8:	01456733          	or	a4,a0,s4
    33bc:	00d7e7b3          	or	a5,a5,a3
    33c0:	0109d693          	srli	a3,s3,0x10
    33c4:	01099993          	slli	s3,s3,0x10
    33c8:	01376733          	or	a4,a4,s3
    33cc:	00d7e7b3          	or	a5,a5,a3
    33d0:	01895593          	srli	a1,s2,0x18
    33d4:	00891513          	slli	a0,s2,0x8
    33d8:	00a76533          	or	a0,a4,a0
    33dc:	00b7e5b3          	or	a1,a5,a1
    33e0:	d21ff0ef          	jal	3100 <set_gpio_string>
    33e4:	01c12083          	lw	ra,28(sp)
    33e8:	01812403          	lw	s0,24(sp)
    33ec:	01412483          	lw	s1,20(sp)
    33f0:	01012903          	lw	s2,16(sp)
    33f4:	00c12983          	lw	s3,12(sp)
    33f8:	00812a03          	lw	s4,8(sp)
    33fc:	00412a83          	lw	s5,4(sp)
    3400:	00012b03          	lw	s6,0(sp)
    3404:	02010113          	addi	sp,sp,32
    3408:	00008067          	ret

0000340c <enter_critical_section>:
    340c:	00021737          	lui	a4,0x21
    3410:	15472783          	lw	a5,340(a4) # 21154 <critical_section_depth>
    3414:	00178693          	addi	a3,a5,1
    3418:	14d72a23          	sw	a3,340(a4)
    341c:	00079c63          	bnez	a5,3434 <enter_critical_section+0x28>
    3420:	30002773          	csrr	a4,mstatus
    3424:	000217b7          	lui	a5,0x21
    3428:	14e7ac23          	sw	a4,344(a5) # 21158 <prv_mstatus>
    342c:	30047073          	csrci	mstatus,8
    3430:	00008067          	ret
    3434:	ff010113          	addi	sp,sp,-16
    3438:	00112623          	sw	ra,12(sp)
    343c:	00000513          	li	a0,0
    3440:	ed5ff0ef          	jal	3314 <set_gpio_error>
    3444:	00c12083          	lw	ra,12(sp)
    3448:	01010113          	addi	sp,sp,16
    344c:	00008067          	ret

00003450 <leave_critical_section>:
    3450:	00021737          	lui	a4,0x21
    3454:	15472783          	lw	a5,340(a4) # 21154 <critical_section_depth>
    3458:	fff78793          	addi	a5,a5,-1
    345c:	14f72a23          	sw	a5,340(a4)
    3460:	00079a63          	bnez	a5,3474 <leave_critical_section+0x24>
    3464:	000217b7          	lui	a5,0x21
    3468:	1587a783          	lw	a5,344(a5) # 21158 <prv_mstatus>
    346c:	30079073          	csrw	mstatus,a5
    3470:	00008067          	ret
    3474:	ff010113          	addi	sp,sp,-16
    3478:	00112623          	sw	ra,12(sp)
    347c:	00100513          	li	a0,1
    3480:	e95ff0ef          	jal	3314 <set_gpio_error>
    3484:	00c12083          	lw	ra,12(sp)
    3488:	01010113          	addi	sp,sp,16
    348c:	00008067          	ret

00003490 <_UARTBuf_putch>:
    3490:	ff010113          	addi	sp,sp,-16
    3494:	00112623          	sw	ra,12(sp)
    3498:	00812423          	sw	s0,8(sp)
    349c:	00912223          	sw	s1,4(sp)
    34a0:	01212023          	sw	s2,0(sp)
    34a4:	00050493          	mv	s1,a0
    34a8:	000217b7          	lui	a5,0x21
    34ac:	15c7a683          	lw	a3,348(a5) # 2115c <UART_CHAN_ID>
    34b0:	00469793          	slli	a5,a3,0x4
    34b4:	40d787b3          	sub	a5,a5,a3
    34b8:	00279793          	slli	a5,a5,0x2
    34bc:	00021437          	lui	s0,0x21
    34c0:	05040413          	addi	s0,s0,80 # 21050 <UART_BUF_TX>
    34c4:	00f40433          	add	s0,s0,a5
    34c8:	00040713          	mv	a4,s0
    34cc:	00174783          	lbu	a5,1(a4)
    34d0:	fe079ee3          	bnez	a5,34cc <_UARTBuf_putch+0x3c>
    34d4:	000217b7          	lui	a5,0x21
    34d8:	00269693          	slli	a3,a3,0x2
    34dc:	03078793          	addi	a5,a5,48 # 21030 <_uart>
    34e0:	00d787b3          	add	a5,a5,a3
    34e4:	0007a903          	lw	s2,0(a5)
    34e8:	f25ff0ef          	jal	340c <enter_critical_section>
    34ec:	00048593          	mv	a1,s1
    34f0:	00040513          	mv	a0,s0
    34f4:	f78ff0ef          	jal	2c6c <UARTBuf_write>
    34f8:	00492783          	lw	a5,4(s2)
    34fc:	0017f793          	andi	a5,a5,1
    3500:	02078063          	beqz	a5,3520 <_UARTBuf_putch+0x90>
    3504:	f4dff0ef          	jal	3450 <leave_critical_section>
    3508:	00c12083          	lw	ra,12(sp)
    350c:	00812403          	lw	s0,8(sp)
    3510:	00412483          	lw	s1,4(sp)
    3514:	00012903          	lw	s2,0(sp)
    3518:	01010113          	addi	sp,sp,16
    351c:	00008067          	ret
    3520:	00040513          	mv	a0,s0
    3524:	f98ff0ef          	jal	2cbc <UARTBuf_read>
    3528:	00a90023          	sb	a0,0(s2)
    352c:	fd9ff06f          	j	3504 <_UARTBuf_putch+0x74>

00003530 <_UARTBuf_getch>:
    3530:	ff010113          	addi	sp,sp,-16
    3534:	00112623          	sw	ra,12(sp)
    3538:	00812423          	sw	s0,8(sp)
    353c:	000217b7          	lui	a5,0x21
    3540:	15c7a703          	lw	a4,348(a5) # 2115c <UART_CHAN_ID>
    3544:	00471793          	slli	a5,a4,0x4
    3548:	40e787b3          	sub	a5,a5,a4
    354c:	00279793          	slli	a5,a5,0x2
    3550:	00021437          	lui	s0,0x21
    3554:	0c840413          	addi	s0,s0,200 # 210c8 <UART_BUF_RX>
    3558:	00f40433          	add	s0,s0,a5
    355c:	00471793          	slli	a5,a4,0x4
    3560:	40e787b3          	sub	a5,a5,a4
    3564:	00279793          	slli	a5,a5,0x2
    3568:	00021737          	lui	a4,0x21
    356c:	05070713          	addi	a4,a4,80 # 21050 <UART_BUF_TX>
    3570:	00f70733          	add	a4,a4,a5
    3574:	07874783          	lbu	a5,120(a4)
    3578:	fe078ee3          	beqz	a5,3574 <_UARTBuf_getch+0x44>
    357c:	e91ff0ef          	jal	340c <enter_critical_section>
    3580:	00040513          	mv	a0,s0
    3584:	f38ff0ef          	jal	2cbc <UARTBuf_read>
    3588:	00050413          	mv	s0,a0
    358c:	ec5ff0ef          	jal	3450 <leave_critical_section>
    3590:	00040513          	mv	a0,s0
    3594:	00c12083          	lw	ra,12(sp)
    3598:	00812403          	lw	s0,8(sp)
    359c:	01010113          	addi	sp,sp,16
    35a0:	00008067          	ret

000035a4 <UARTBuf_consume_new_line>:
    35a4:	ff010113          	addi	sp,sp,-16
    35a8:	00112623          	sw	ra,12(sp)
    35ac:	00812423          	sw	s0,8(sp)
    35b0:	00050413          	mv	s0,a0
    35b4:	e59ff0ef          	jal	340c <enter_critical_section>
    35b8:	00c42783          	lw	a5,12(s0)
    35bc:	fff78793          	addi	a5,a5,-1
    35c0:	00f42623          	sw	a5,12(s0)
    35c4:	e8dff0ef          	jal	3450 <leave_critical_section>
    35c8:	00c12083          	lw	ra,12(sp)
    35cc:	00812403          	lw	s0,8(sp)
    35d0:	01010113          	addi	sp,sp,16
    35d4:	00008067          	ret

000035d8 <set_mtimer_interval>:
    35d8:	00151793          	slli	a5,a0,0x1
    35dc:	00a787b3          	add	a5,a5,a0
    35e0:	00679713          	slli	a4,a5,0x6
    35e4:	00e787b3          	add	a5,a5,a4
    35e8:	00279793          	slli	a5,a5,0x2
    35ec:	00a787b3          	add	a5,a5,a0
    35f0:	00279793          	slli	a5,a5,0x2
    35f4:	00a78533          	add	a0,a5,a0
    35f8:	000217b7          	lui	a5,0x21
    35fc:	14a7a823          	sw	a0,336(a5) # 21150 <mtimer_interval>
    3600:	00008067          	ret

00003604 <mtime_to_microsec>:
    3604:	ff010113          	addi	sp,sp,-16
    3608:	00112623          	sw	ra,12(sp)
    360c:	03200593          	li	a1,50
    3610:	00451513          	slli	a0,a0,0x4
    3614:	5a1000ef          	jal	43b4 <__hidden___udivsi3>
    3618:	00c12083          	lw	ra,12(sp)
    361c:	01010113          	addi	sp,sp,16
    3620:	00008067          	ret

00003624 <enable_timer_interrupt>:
    3624:	08000793          	li	a5,128
    3628:	3047a073          	csrs	mie,a5
    362c:	30046073          	csrsi	mstatus,8
    3630:	000037b7          	lui	a5,0x3
    3634:	6d878793          	addi	a5,a5,1752 # 36d8 <_mhandler>
    3638:	30579073          	csrw	mtvec,a5
    363c:	00008067          	ret

00003640 <start_profiler>:
    3640:	c0002773          	rdcycle	a4
    3644:	000217b7          	lui	a5,0x21
    3648:	05078793          	addi	a5,a5,80 # 21050 <UART_BUF_TX>
    364c:	0ee7a823          	sw	a4,240(a5)
    3650:	c0202773          	rdinstret	a4
    3654:	0ee7ac23          	sw	a4,248(a5)
    3658:	c0102773          	rdtime	a4
    365c:	0ee7aa23          	sw	a4,244(a5)
    3660:	00008067          	ret

00003664 <end_profiler>:
    3664:	ff010113          	addi	sp,sp,-16
    3668:	00112623          	sw	ra,12(sp)
    366c:	00812423          	sw	s0,8(sp)
    3670:	00912223          	sw	s1,4(sp)
    3674:	01212023          	sw	s2,0(sp)
    3678:	c00024f3          	rdcycle	s1
    367c:	c0202973          	rdinstret	s2
    3680:	c0102573          	rdtime	a0
    3684:	00021437          	lui	s0,0x21
    3688:	05040413          	addi	s0,s0,80 # 21050 <UART_BUF_TX>
    368c:	0f442783          	lw	a5,244(s0)
    3690:	40f50533          	sub	a0,a0,a5
    3694:	03200593          	li	a1,50
    3698:	00451513          	slli	a0,a0,0x4
    369c:	519000ef          	jal	43b4 <__hidden___udivsi3>
    36a0:	00050693          	mv	a3,a0
    36a4:	0f842603          	lw	a2,248(s0)
    36a8:	0f042583          	lw	a1,240(s0)
    36ac:	40c90633          	sub	a2,s2,a2
    36b0:	40b485b3          	sub	a1,s1,a1
    36b4:	00020537          	lui	a0,0x20
    36b8:	73450513          	addi	a0,a0,1844 # 20734 <__clz_tab+0x4cc>
    36bc:	990ff0ef          	jal	284c <printf>
    36c0:	00c12083          	lw	ra,12(sp)
    36c4:	00812403          	lw	s0,8(sp)
    36c8:	00412483          	lw	s1,4(sp)
    36cc:	00012903          	lw	s2,0(sp)
    36d0:	01010113          	addi	sp,sp,16
    36d4:	00008067          	ret

000036d8 <_mhandler>:
    36d8:	fc010113          	addi	sp,sp,-64
    36dc:	00112023          	sw	ra,0(sp)
    36e0:	00512223          	sw	t0,4(sp)
    36e4:	00612423          	sw	t1,8(sp)
    36e8:	00712623          	sw	t2,12(sp)
    36ec:	00a12823          	sw	a0,16(sp)
    36f0:	00b12a23          	sw	a1,20(sp)
    36f4:	00c12c23          	sw	a2,24(sp)
    36f8:	00d12e23          	sw	a3,28(sp)
    36fc:	02e12023          	sw	a4,32(sp)
    3700:	02f12223          	sw	a5,36(sp)
    3704:	03012423          	sw	a6,40(sp)
    3708:	03112623          	sw	a7,44(sp)
    370c:	03c12823          	sw	t3,48(sp)
    3710:	03d12a23          	sw	t4,52(sp)
    3714:	03e12c23          	sw	t5,56(sp)
    3718:	03f12e23          	sw	t6,60(sp)
    371c:	965ff0ef          	jal	3080 <mhandler>
    3720:	00012083          	lw	ra,0(sp)
    3724:	00412283          	lw	t0,4(sp)
    3728:	00812303          	lw	t1,8(sp)
    372c:	00c12383          	lw	t2,12(sp)
    3730:	01012503          	lw	a0,16(sp)
    3734:	01412583          	lw	a1,20(sp)
    3738:	01812603          	lw	a2,24(sp)
    373c:	01c12683          	lw	a3,28(sp)
    3740:	02012703          	lw	a4,32(sp)
    3744:	02412783          	lw	a5,36(sp)
    3748:	02812803          	lw	a6,40(sp)
    374c:	02c12883          	lw	a7,44(sp)
    3750:	03012e03          	lw	t3,48(sp)
    3754:	03412e83          	lw	t4,52(sp)
    3758:	03812f03          	lw	t5,56(sp)
    375c:	03c12f83          	lw	t6,60(sp)
    3760:	04010113          	addi	sp,sp,64
    3764:	30200073          	mret

00003768 <__divdi3>:
    3768:	fd010113          	addi	sp,sp,-48
    376c:	02912223          	sw	s1,36(sp)
    3770:	01412c23          	sw	s4,24(sp)
    3774:	02112623          	sw	ra,44(sp)
    3778:	02812423          	sw	s0,40(sp)
    377c:	03212023          	sw	s2,32(sp)
    3780:	01312e23          	sw	s3,28(sp)
    3784:	01512a23          	sw	s5,20(sp)
    3788:	01612823          	sw	s6,16(sp)
    378c:	01712623          	sw	s7,12(sp)
    3790:	01812423          	sw	s8,8(sp)
    3794:	01912223          	sw	s9,4(sp)
    3798:	01a12023          	sw	s10,0(sp)
    379c:	00050a13          	mv	s4,a0
    37a0:	00000493          	li	s1,0
    37a4:	0005dc63          	bgez	a1,37bc <__divdi3+0x54>
    37a8:	00a037b3          	snez	a5,a0
    37ac:	40b005b3          	neg	a1,a1
    37b0:	40f585b3          	sub	a1,a1,a5
    37b4:	40a00a33          	neg	s4,a0
    37b8:	fff00493          	li	s1,-1
    37bc:	0006dc63          	bgez	a3,37d4 <__divdi3+0x6c>
    37c0:	00c037b3          	snez	a5,a2
    37c4:	40d006b3          	neg	a3,a3
    37c8:	fff4c493          	not	s1,s1
    37cc:	40f686b3          	sub	a3,a3,a5
    37d0:	40c00633          	neg	a2,a2
    37d4:	00060a93          	mv	s5,a2
    37d8:	000a0913          	mv	s2,s4
    37dc:	00058993          	mv	s3,a1
    37e0:	38069a63          	bnez	a3,3b74 <__divdi3+0x40c>
    37e4:	000207b7          	lui	a5,0x20
    37e8:	26878793          	addi	a5,a5,616 # 20268 <__clz_tab>
    37ec:	12c5f663          	bgeu	a1,a2,3918 <__divdi3+0x1b0>
    37f0:	00010737          	lui	a4,0x10
    37f4:	10e67863          	bgeu	a2,a4,3904 <__divdi3+0x19c>
    37f8:	10063713          	sltiu	a4,a2,256
    37fc:	00173713          	seqz	a4,a4
    3800:	00371713          	slli	a4,a4,0x3
    3804:	00e656b3          	srl	a3,a2,a4
    3808:	00d787b3          	add	a5,a5,a3
    380c:	0007c783          	lbu	a5,0(a5)
    3810:	02000693          	li	a3,32
    3814:	00e787b3          	add	a5,a5,a4
    3818:	40f68733          	sub	a4,a3,a5
    381c:	00f68c63          	beq	a3,a5,3834 <__divdi3+0xcc>
    3820:	00e599b3          	sll	s3,a1,a4
    3824:	00fa57b3          	srl	a5,s4,a5
    3828:	00e61ab3          	sll	s5,a2,a4
    382c:	0137e9b3          	or	s3,a5,s3
    3830:	00ea1933          	sll	s2,s4,a4
    3834:	010adb13          	srli	s6,s5,0x10
    3838:	000b0593          	mv	a1,s6
    383c:	00098513          	mv	a0,s3
    3840:	010a9b93          	slli	s7,s5,0x10
    3844:	371000ef          	jal	43b4 <__hidden___udivsi3>
    3848:	010bdb93          	srli	s7,s7,0x10
    384c:	00050593          	mv	a1,a0
    3850:	00050a13          	mv	s4,a0
    3854:	000b8513          	mv	a0,s7
    3858:	2a5000ef          	jal	42fc <__mulsi3>
    385c:	00050413          	mv	s0,a0
    3860:	000b0593          	mv	a1,s6
    3864:	00098513          	mv	a0,s3
    3868:	395000ef          	jal	43fc <__umodsi3>
    386c:	01051513          	slli	a0,a0,0x10
    3870:	01095713          	srli	a4,s2,0x10
    3874:	00a76733          	or	a4,a4,a0
    3878:	000a0993          	mv	s3,s4
    387c:	00877e63          	bgeu	a4,s0,3898 <__divdi3+0x130>
    3880:	00ea8733          	add	a4,s5,a4
    3884:	fffa0993          	addi	s3,s4,-1
    3888:	01576863          	bltu	a4,s5,3898 <__divdi3+0x130>
    388c:	00877663          	bgeu	a4,s0,3898 <__divdi3+0x130>
    3890:	ffea0993          	addi	s3,s4,-2
    3894:	01570733          	add	a4,a4,s5
    3898:	40870433          	sub	s0,a4,s0
    389c:	000b0593          	mv	a1,s6
    38a0:	00040513          	mv	a0,s0
    38a4:	311000ef          	jal	43b4 <__hidden___udivsi3>
    38a8:	00050593          	mv	a1,a0
    38ac:	00050a13          	mv	s4,a0
    38b0:	000b8513          	mv	a0,s7
    38b4:	249000ef          	jal	42fc <__mulsi3>
    38b8:	00050b93          	mv	s7,a0
    38bc:	000b0593          	mv	a1,s6
    38c0:	00040513          	mv	a0,s0
    38c4:	339000ef          	jal	43fc <__umodsi3>
    38c8:	01091913          	slli	s2,s2,0x10
    38cc:	01051513          	slli	a0,a0,0x10
    38d0:	01095913          	srli	s2,s2,0x10
    38d4:	00a96933          	or	s2,s2,a0
    38d8:	000a0713          	mv	a4,s4
    38dc:	01797c63          	bgeu	s2,s7,38f4 <__divdi3+0x18c>
    38e0:	012a8933          	add	s2,s5,s2
    38e4:	fffa0713          	addi	a4,s4,-1
    38e8:	01596663          	bltu	s2,s5,38f4 <__divdi3+0x18c>
    38ec:	01797463          	bgeu	s2,s7,38f4 <__divdi3+0x18c>
    38f0:	ffea0713          	addi	a4,s4,-2
    38f4:	01099793          	slli	a5,s3,0x10
    38f8:	00e7e7b3          	or	a5,a5,a4
    38fc:	00000993          	li	s3,0
    3900:	1200006f          	j	3a20 <__divdi3+0x2b8>
    3904:	010006b7          	lui	a3,0x1000
    3908:	01800713          	li	a4,24
    390c:	eed67ce3          	bgeu	a2,a3,3804 <__divdi3+0x9c>
    3910:	01000713          	li	a4,16
    3914:	ef1ff06f          	j	3804 <__divdi3+0x9c>
    3918:	00000713          	li	a4,0
    391c:	00060c63          	beqz	a2,3934 <__divdi3+0x1cc>
    3920:	00010737          	lui	a4,0x10
    3924:	14e67863          	bgeu	a2,a4,3a74 <__divdi3+0x30c>
    3928:	10063713          	sltiu	a4,a2,256
    392c:	00173713          	seqz	a4,a4
    3930:	00371713          	slli	a4,a4,0x3
    3934:	00e656b3          	srl	a3,a2,a4
    3938:	00d787b3          	add	a5,a5,a3
    393c:	0007c783          	lbu	a5,0(a5)
    3940:	02000693          	li	a3,32
    3944:	00e787b3          	add	a5,a5,a4
    3948:	40f68733          	sub	a4,a3,a5
    394c:	12f69e63          	bne	a3,a5,3a88 <__divdi3+0x320>
    3950:	40c58a33          	sub	s4,a1,a2
    3954:	00100993          	li	s3,1
    3958:	010adb13          	srli	s6,s5,0x10
    395c:	000b0593          	mv	a1,s6
    3960:	000a0513          	mv	a0,s4
    3964:	010a9b93          	slli	s7,s5,0x10
    3968:	24d000ef          	jal	43b4 <__hidden___udivsi3>
    396c:	010bdb93          	srli	s7,s7,0x10
    3970:	00050593          	mv	a1,a0
    3974:	00050c93          	mv	s9,a0
    3978:	000b8513          	mv	a0,s7
    397c:	181000ef          	jal	42fc <__mulsi3>
    3980:	00050c13          	mv	s8,a0
    3984:	000b0593          	mv	a1,s6
    3988:	000a0513          	mv	a0,s4
    398c:	271000ef          	jal	43fc <__umodsi3>
    3990:	01051513          	slli	a0,a0,0x10
    3994:	01095713          	srli	a4,s2,0x10
    3998:	00a76733          	or	a4,a4,a0
    399c:	000c8a13          	mv	s4,s9
    39a0:	01877e63          	bgeu	a4,s8,39bc <__divdi3+0x254>
    39a4:	00ea8733          	add	a4,s5,a4
    39a8:	fffc8a13          	addi	s4,s9,-1
    39ac:	01576863          	bltu	a4,s5,39bc <__divdi3+0x254>
    39b0:	01877663          	bgeu	a4,s8,39bc <__divdi3+0x254>
    39b4:	ffec8a13          	addi	s4,s9,-2
    39b8:	01570733          	add	a4,a4,s5
    39bc:	41870433          	sub	s0,a4,s8
    39c0:	000b0593          	mv	a1,s6
    39c4:	00040513          	mv	a0,s0
    39c8:	1ed000ef          	jal	43b4 <__hidden___udivsi3>
    39cc:	00050593          	mv	a1,a0
    39d0:	00050c13          	mv	s8,a0
    39d4:	000b8513          	mv	a0,s7
    39d8:	125000ef          	jal	42fc <__mulsi3>
    39dc:	00050b93          	mv	s7,a0
    39e0:	000b0593          	mv	a1,s6
    39e4:	00040513          	mv	a0,s0
    39e8:	215000ef          	jal	43fc <__umodsi3>
    39ec:	01091913          	slli	s2,s2,0x10
    39f0:	01051513          	slli	a0,a0,0x10
    39f4:	01095913          	srli	s2,s2,0x10
    39f8:	00a96933          	or	s2,s2,a0
    39fc:	000c0713          	mv	a4,s8
    3a00:	01797c63          	bgeu	s2,s7,3a18 <__divdi3+0x2b0>
    3a04:	012a8933          	add	s2,s5,s2
    3a08:	fffc0713          	addi	a4,s8,-1
    3a0c:	01596663          	bltu	s2,s5,3a18 <__divdi3+0x2b0>
    3a10:	01797463          	bgeu	s2,s7,3a18 <__divdi3+0x2b0>
    3a14:	ffec0713          	addi	a4,s8,-2
    3a18:	010a1793          	slli	a5,s4,0x10
    3a1c:	00e7e7b3          	or	a5,a5,a4
    3a20:	00078513          	mv	a0,a5
    3a24:	00098593          	mv	a1,s3
    3a28:	00048a63          	beqz	s1,3a3c <__divdi3+0x2d4>
    3a2c:	00f037b3          	snez	a5,a5
    3a30:	413005b3          	neg	a1,s3
    3a34:	40f585b3          	sub	a1,a1,a5
    3a38:	40a00533          	neg	a0,a0
    3a3c:	02c12083          	lw	ra,44(sp)
    3a40:	02812403          	lw	s0,40(sp)
    3a44:	02412483          	lw	s1,36(sp)
    3a48:	02012903          	lw	s2,32(sp)
    3a4c:	01c12983          	lw	s3,28(sp)
    3a50:	01812a03          	lw	s4,24(sp)
    3a54:	01412a83          	lw	s5,20(sp)
    3a58:	01012b03          	lw	s6,16(sp)
    3a5c:	00c12b83          	lw	s7,12(sp)
    3a60:	00812c03          	lw	s8,8(sp)
    3a64:	00412c83          	lw	s9,4(sp)
    3a68:	00012d03          	lw	s10,0(sp)
    3a6c:	03010113          	addi	sp,sp,48
    3a70:	00008067          	ret
    3a74:	010006b7          	lui	a3,0x1000
    3a78:	01800713          	li	a4,24
    3a7c:	ead67ce3          	bgeu	a2,a3,3934 <__divdi3+0x1cc>
    3a80:	01000713          	li	a4,16
    3a84:	eb1ff06f          	j	3934 <__divdi3+0x1cc>
    3a88:	00e61ab3          	sll	s5,a2,a4
    3a8c:	00f5d9b3          	srl	s3,a1,a5
    3a90:	010adb93          	srli	s7,s5,0x10
    3a94:	00e595b3          	sll	a1,a1,a4
    3a98:	00fa57b3          	srl	a5,s4,a5
    3a9c:	00b7eb33          	or	s6,a5,a1
    3aa0:	00ea1933          	sll	s2,s4,a4
    3aa4:	000b8593          	mv	a1,s7
    3aa8:	00098513          	mv	a0,s3
    3aac:	010a9a13          	slli	s4,s5,0x10
    3ab0:	105000ef          	jal	43b4 <__hidden___udivsi3>
    3ab4:	010a5a13          	srli	s4,s4,0x10
    3ab8:	00050593          	mv	a1,a0
    3abc:	00050c13          	mv	s8,a0
    3ac0:	000a0513          	mv	a0,s4
    3ac4:	039000ef          	jal	42fc <__mulsi3>
    3ac8:	00050413          	mv	s0,a0
    3acc:	000b8593          	mv	a1,s7
    3ad0:	00098513          	mv	a0,s3
    3ad4:	129000ef          	jal	43fc <__umodsi3>
    3ad8:	01051513          	slli	a0,a0,0x10
    3adc:	010b5713          	srli	a4,s6,0x10
    3ae0:	00a76733          	or	a4,a4,a0
    3ae4:	000c0993          	mv	s3,s8
    3ae8:	00877e63          	bgeu	a4,s0,3b04 <__divdi3+0x39c>
    3aec:	00ea8733          	add	a4,s5,a4
    3af0:	fffc0993          	addi	s3,s8,-1
    3af4:	01576863          	bltu	a4,s5,3b04 <__divdi3+0x39c>
    3af8:	00877663          	bgeu	a4,s0,3b04 <__divdi3+0x39c>
    3afc:	ffec0993          	addi	s3,s8,-2
    3b00:	01570733          	add	a4,a4,s5
    3b04:	40870433          	sub	s0,a4,s0
    3b08:	000b8593          	mv	a1,s7
    3b0c:	00040513          	mv	a0,s0
    3b10:	0a5000ef          	jal	43b4 <__hidden___udivsi3>
    3b14:	00050593          	mv	a1,a0
    3b18:	00050c13          	mv	s8,a0
    3b1c:	000a0513          	mv	a0,s4
    3b20:	7dc000ef          	jal	42fc <__mulsi3>
    3b24:	00050a13          	mv	s4,a0
    3b28:	000b8593          	mv	a1,s7
    3b2c:	00040513          	mv	a0,s0
    3b30:	0cd000ef          	jal	43fc <__umodsi3>
    3b34:	010b1793          	slli	a5,s6,0x10
    3b38:	01051513          	slli	a0,a0,0x10
    3b3c:	0107d793          	srli	a5,a5,0x10
    3b40:	00a7e7b3          	or	a5,a5,a0
    3b44:	000c0713          	mv	a4,s8
    3b48:	0147fe63          	bgeu	a5,s4,3b64 <__divdi3+0x3fc>
    3b4c:	00fa87b3          	add	a5,s5,a5
    3b50:	fffc0713          	addi	a4,s8,-1
    3b54:	0157e863          	bltu	a5,s5,3b64 <__divdi3+0x3fc>
    3b58:	0147f663          	bgeu	a5,s4,3b64 <__divdi3+0x3fc>
    3b5c:	ffec0713          	addi	a4,s8,-2
    3b60:	015787b3          	add	a5,a5,s5
    3b64:	01099993          	slli	s3,s3,0x10
    3b68:	41478a33          	sub	s4,a5,s4
    3b6c:	00e9e9b3          	or	s3,s3,a4
    3b70:	de9ff06f          	j	3958 <__divdi3+0x1f0>
    3b74:	1ed5ec63          	bltu	a1,a3,3d6c <__divdi3+0x604>
    3b78:	000107b7          	lui	a5,0x10
    3b7c:	04f6f463          	bgeu	a3,a5,3bc4 <__divdi3+0x45c>
    3b80:	1006b713          	sltiu	a4,a3,256
    3b84:	00173713          	seqz	a4,a4
    3b88:	00371713          	slli	a4,a4,0x3
    3b8c:	000207b7          	lui	a5,0x20
    3b90:	00e6d533          	srl	a0,a3,a4
    3b94:	26878793          	addi	a5,a5,616 # 20268 <__clz_tab>
    3b98:	00a787b3          	add	a5,a5,a0
    3b9c:	0007c803          	lbu	a6,0(a5)
    3ba0:	02000793          	li	a5,32
    3ba4:	00e80833          	add	a6,a6,a4
    3ba8:	410789b3          	sub	s3,a5,a6
    3bac:	03079663          	bne	a5,a6,3bd8 <__divdi3+0x470>
    3bb0:	00100793          	li	a5,1
    3bb4:	e6b6e6e3          	bltu	a3,a1,3a20 <__divdi3+0x2b8>
    3bb8:	00ca37b3          	sltu	a5,s4,a2
    3bbc:	0017b793          	seqz	a5,a5
    3bc0:	e61ff06f          	j	3a20 <__divdi3+0x2b8>
    3bc4:	010007b7          	lui	a5,0x1000
    3bc8:	01800713          	li	a4,24
    3bcc:	fcf6f0e3          	bgeu	a3,a5,3b8c <__divdi3+0x424>
    3bd0:	01000713          	li	a4,16
    3bd4:	fb9ff06f          	j	3b8c <__divdi3+0x424>
    3bd8:	013696b3          	sll	a3,a3,s3
    3bdc:	01065cb3          	srl	s9,a2,a6
    3be0:	00dcecb3          	or	s9,s9,a3
    3be4:	0105d933          	srl	s2,a1,a6
    3be8:	010cdb93          	srli	s7,s9,0x10
    3bec:	010a5833          	srl	a6,s4,a6
    3bf0:	013595b3          	sll	a1,a1,s3
    3bf4:	00b86ab3          	or	s5,a6,a1
    3bf8:	00090513          	mv	a0,s2
    3bfc:	000b8593          	mv	a1,s7
    3c00:	010c9c13          	slli	s8,s9,0x10
    3c04:	01361433          	sll	s0,a2,s3
    3c08:	010c5c13          	srli	s8,s8,0x10
    3c0c:	7a8000ef          	jal	43b4 <__hidden___udivsi3>
    3c10:	00050593          	mv	a1,a0
    3c14:	00050d13          	mv	s10,a0
    3c18:	000c0513          	mv	a0,s8
    3c1c:	6e0000ef          	jal	42fc <__mulsi3>
    3c20:	00050b13          	mv	s6,a0
    3c24:	000b8593          	mv	a1,s7
    3c28:	00090513          	mv	a0,s2
    3c2c:	7d0000ef          	jal	43fc <__umodsi3>
    3c30:	01051513          	slli	a0,a0,0x10
    3c34:	010ad693          	srli	a3,s5,0x10
    3c38:	00a6e6b3          	or	a3,a3,a0
    3c3c:	000d0913          	mv	s2,s10
    3c40:	0166fe63          	bgeu	a3,s6,3c5c <__divdi3+0x4f4>
    3c44:	00dc86b3          	add	a3,s9,a3
    3c48:	fffd0913          	addi	s2,s10,-1
    3c4c:	0196e863          	bltu	a3,s9,3c5c <__divdi3+0x4f4>
    3c50:	0166f663          	bgeu	a3,s6,3c5c <__divdi3+0x4f4>
    3c54:	ffed0913          	addi	s2,s10,-2
    3c58:	019686b3          	add	a3,a3,s9
    3c5c:	41668b33          	sub	s6,a3,s6
    3c60:	000b8593          	mv	a1,s7
    3c64:	000b0513          	mv	a0,s6
    3c68:	74c000ef          	jal	43b4 <__hidden___udivsi3>
    3c6c:	00050593          	mv	a1,a0
    3c70:	00050d13          	mv	s10,a0
    3c74:	000c0513          	mv	a0,s8
    3c78:	684000ef          	jal	42fc <__mulsi3>
    3c7c:	00050c13          	mv	s8,a0
    3c80:	000b8593          	mv	a1,s7
    3c84:	000b0513          	mv	a0,s6
    3c88:	774000ef          	jal	43fc <__umodsi3>
    3c8c:	010a9713          	slli	a4,s5,0x10
    3c90:	01051513          	slli	a0,a0,0x10
    3c94:	01075713          	srli	a4,a4,0x10
    3c98:	00a76733          	or	a4,a4,a0
    3c9c:	000d0693          	mv	a3,s10
    3ca0:	01877e63          	bgeu	a4,s8,3cbc <__divdi3+0x554>
    3ca4:	00ec8733          	add	a4,s9,a4
    3ca8:	fffd0693          	addi	a3,s10,-1
    3cac:	01976863          	bltu	a4,s9,3cbc <__divdi3+0x554>
    3cb0:	01877663          	bgeu	a4,s8,3cbc <__divdi3+0x554>
    3cb4:	ffed0693          	addi	a3,s10,-2
    3cb8:	01970733          	add	a4,a4,s9
    3cbc:	01091793          	slli	a5,s2,0x10
    3cc0:	01069813          	slli	a6,a3,0x10
    3cc4:	01041313          	slli	t1,s0,0x10
    3cc8:	00d7e7b3          	or	a5,a5,a3
    3ccc:	01085813          	srli	a6,a6,0x10
    3cd0:	01035313          	srli	t1,t1,0x10
    3cd4:	41870733          	sub	a4,a4,s8
    3cd8:	0107de13          	srli	t3,a5,0x10
    3cdc:	01045413          	srli	s0,s0,0x10
    3ce0:	00080513          	mv	a0,a6
    3ce4:	00030593          	mv	a1,t1
    3ce8:	614000ef          	jal	42fc <__mulsi3>
    3cec:	00050893          	mv	a7,a0
    3cf0:	00040593          	mv	a1,s0
    3cf4:	00080513          	mv	a0,a6
    3cf8:	604000ef          	jal	42fc <__mulsi3>
    3cfc:	00050813          	mv	a6,a0
    3d00:	00030593          	mv	a1,t1
    3d04:	000e0513          	mv	a0,t3
    3d08:	5f4000ef          	jal	42fc <__mulsi3>
    3d0c:	00050313          	mv	t1,a0
    3d10:	00040593          	mv	a1,s0
    3d14:	000e0513          	mv	a0,t3
    3d18:	5e4000ef          	jal	42fc <__mulsi3>
    3d1c:	0108d693          	srli	a3,a7,0x10
    3d20:	00680833          	add	a6,a6,t1
    3d24:	010686b3          	add	a3,a3,a6
    3d28:	00050613          	mv	a2,a0
    3d2c:	0066f663          	bgeu	a3,t1,3d38 <__divdi3+0x5d0>
    3d30:	000105b7          	lui	a1,0x10
    3d34:	00b50633          	add	a2,a0,a1
    3d38:	0106d593          	srli	a1,a3,0x10
    3d3c:	00c58633          	add	a2,a1,a2
    3d40:	02c76263          	bltu	a4,a2,3d64 <__divdi3+0x5fc>
    3d44:	bac71ce3          	bne	a4,a2,38fc <__divdi3+0x194>
    3d48:	01089893          	slli	a7,a7,0x10
    3d4c:	01069693          	slli	a3,a3,0x10
    3d50:	0108d893          	srli	a7,a7,0x10
    3d54:	013a1733          	sll	a4,s4,s3
    3d58:	011686b3          	add	a3,a3,a7
    3d5c:	00000993          	li	s3,0
    3d60:	ccd770e3          	bgeu	a4,a3,3a20 <__divdi3+0x2b8>
    3d64:	fff78793          	addi	a5,a5,-1 # ffffff <stack_bot+0xfdbfff>
    3d68:	b95ff06f          	j	38fc <__divdi3+0x194>
    3d6c:	00000993          	li	s3,0
    3d70:	00000793          	li	a5,0
    3d74:	cadff06f          	j	3a20 <__divdi3+0x2b8>

00003d78 <__moddi3>:
    3d78:	fc010113          	addi	sp,sp,-64
    3d7c:	02912a23          	sw	s1,52(sp)
    3d80:	02112e23          	sw	ra,60(sp)
    3d84:	02812c23          	sw	s0,56(sp)
    3d88:	03212823          	sw	s2,48(sp)
    3d8c:	03312623          	sw	s3,44(sp)
    3d90:	03412423          	sw	s4,40(sp)
    3d94:	03512223          	sw	s5,36(sp)
    3d98:	03612023          	sw	s6,32(sp)
    3d9c:	01712e23          	sw	s7,28(sp)
    3da0:	01812c23          	sw	s8,24(sp)
    3da4:	01912a23          	sw	s9,20(sp)
    3da8:	01a12823          	sw	s10,16(sp)
    3dac:	01b12623          	sw	s11,12(sp)
    3db0:	00000493          	li	s1,0
    3db4:	0005dc63          	bgez	a1,3dcc <__moddi3+0x54>
    3db8:	00a037b3          	snez	a5,a0
    3dbc:	40b005b3          	neg	a1,a1
    3dc0:	40f585b3          	sub	a1,a1,a5
    3dc4:	40a00533          	neg	a0,a0
    3dc8:	fff00493          	li	s1,-1
    3dcc:	0006da63          	bgez	a3,3de0 <__moddi3+0x68>
    3dd0:	00c037b3          	snez	a5,a2
    3dd4:	40d006b3          	neg	a3,a3
    3dd8:	40f686b3          	sub	a3,a3,a5
    3ddc:	40c00633          	neg	a2,a2
    3de0:	00060a13          	mv	s4,a2
    3de4:	00050413          	mv	s0,a0
    3de8:	00058b13          	mv	s6,a1
    3dec:	2c069e63          	bnez	a3,40c8 <__moddi3+0x350>
    3df0:	000207b7          	lui	a5,0x20
    3df4:	26878793          	addi	a5,a5,616 # 20268 <__clz_tab>
    3df8:	14c5fa63          	bgeu	a1,a2,3f4c <__moddi3+0x1d4>
    3dfc:	00010737          	lui	a4,0x10
    3e00:	12e67c63          	bgeu	a2,a4,3f38 <__moddi3+0x1c0>
    3e04:	10063713          	sltiu	a4,a2,256
    3e08:	00173713          	seqz	a4,a4
    3e0c:	00371713          	slli	a4,a4,0x3
    3e10:	00e656b3          	srl	a3,a2,a4
    3e14:	00d787b3          	add	a5,a5,a3
    3e18:	0007c783          	lbu	a5,0(a5)
    3e1c:	00e787b3          	add	a5,a5,a4
    3e20:	02000713          	li	a4,32
    3e24:	40f709b3          	sub	s3,a4,a5
    3e28:	00f70c63          	beq	a4,a5,3e40 <__moddi3+0xc8>
    3e2c:	013595b3          	sll	a1,a1,s3
    3e30:	00f557b3          	srl	a5,a0,a5
    3e34:	01361a33          	sll	s4,a2,s3
    3e38:	00b7eb33          	or	s6,a5,a1
    3e3c:	01351433          	sll	s0,a0,s3
    3e40:	010a5b93          	srli	s7,s4,0x10
    3e44:	000b8593          	mv	a1,s7
    3e48:	010a1a93          	slli	s5,s4,0x10
    3e4c:	000b0513          	mv	a0,s6
    3e50:	564000ef          	jal	43b4 <__hidden___udivsi3>
    3e54:	010ada93          	srli	s5,s5,0x10
    3e58:	000a8593          	mv	a1,s5
    3e5c:	4a0000ef          	jal	42fc <__mulsi3>
    3e60:	00050913          	mv	s2,a0
    3e64:	000b8593          	mv	a1,s7
    3e68:	000b0513          	mv	a0,s6
    3e6c:	590000ef          	jal	43fc <__umodsi3>
    3e70:	01051513          	slli	a0,a0,0x10
    3e74:	01045793          	srli	a5,s0,0x10
    3e78:	00a7e7b3          	or	a5,a5,a0
    3e7c:	0127fa63          	bgeu	a5,s2,3e90 <__moddi3+0x118>
    3e80:	00fa07b3          	add	a5,s4,a5
    3e84:	0147e663          	bltu	a5,s4,3e90 <__moddi3+0x118>
    3e88:	0127f463          	bgeu	a5,s2,3e90 <__moddi3+0x118>
    3e8c:	014787b3          	add	a5,a5,s4
    3e90:	41278933          	sub	s2,a5,s2
    3e94:	000b8593          	mv	a1,s7
    3e98:	00090513          	mv	a0,s2
    3e9c:	518000ef          	jal	43b4 <__hidden___udivsi3>
    3ea0:	000a8593          	mv	a1,s5
    3ea4:	458000ef          	jal	42fc <__mulsi3>
    3ea8:	00050a93          	mv	s5,a0
    3eac:	000b8593          	mv	a1,s7
    3eb0:	00090513          	mv	a0,s2
    3eb4:	548000ef          	jal	43fc <__umodsi3>
    3eb8:	01041413          	slli	s0,s0,0x10
    3ebc:	01051513          	slli	a0,a0,0x10
    3ec0:	01045413          	srli	s0,s0,0x10
    3ec4:	00a46433          	or	s0,s0,a0
    3ec8:	01547a63          	bgeu	s0,s5,3edc <__moddi3+0x164>
    3ecc:	008a0433          	add	s0,s4,s0
    3ed0:	01446663          	bltu	s0,s4,3edc <__moddi3+0x164>
    3ed4:	01547463          	bgeu	s0,s5,3edc <__moddi3+0x164>
    3ed8:	01440433          	add	s0,s0,s4
    3edc:	41540433          	sub	s0,s0,s5
    3ee0:	01345533          	srl	a0,s0,s3
    3ee4:	00000593          	li	a1,0
    3ee8:	00048a63          	beqz	s1,3efc <__moddi3+0x184>
    3eec:	00a037b3          	snez	a5,a0
    3ef0:	40b005b3          	neg	a1,a1
    3ef4:	40f585b3          	sub	a1,a1,a5
    3ef8:	40a00533          	neg	a0,a0
    3efc:	03c12083          	lw	ra,60(sp)
    3f00:	03812403          	lw	s0,56(sp)
    3f04:	03412483          	lw	s1,52(sp)
    3f08:	03012903          	lw	s2,48(sp)
    3f0c:	02c12983          	lw	s3,44(sp)
    3f10:	02812a03          	lw	s4,40(sp)
    3f14:	02412a83          	lw	s5,36(sp)
    3f18:	02012b03          	lw	s6,32(sp)
    3f1c:	01c12b83          	lw	s7,28(sp)
    3f20:	01812c03          	lw	s8,24(sp)
    3f24:	01412c83          	lw	s9,20(sp)
    3f28:	01012d03          	lw	s10,16(sp)
    3f2c:	00c12d83          	lw	s11,12(sp)
    3f30:	04010113          	addi	sp,sp,64
    3f34:	00008067          	ret
    3f38:	010006b7          	lui	a3,0x1000
    3f3c:	01800713          	li	a4,24
    3f40:	ecd678e3          	bgeu	a2,a3,3e10 <__moddi3+0x98>
    3f44:	01000713          	li	a4,16
    3f48:	ec9ff06f          	j	3e10 <__moddi3+0x98>
    3f4c:	00000713          	li	a4,0
    3f50:	00060c63          	beqz	a2,3f68 <__moddi3+0x1f0>
    3f54:	00010737          	lui	a4,0x10
    3f58:	14e67e63          	bgeu	a2,a4,40b4 <__moddi3+0x33c>
    3f5c:	10063713          	sltiu	a4,a2,256
    3f60:	00173713          	seqz	a4,a4
    3f64:	00371713          	slli	a4,a4,0x3
    3f68:	00e656b3          	srl	a3,a2,a4
    3f6c:	00d787b3          	add	a5,a5,a3
    3f70:	0007c783          	lbu	a5,0(a5)
    3f74:	40c58933          	sub	s2,a1,a2
    3f78:	00e787b3          	add	a5,a5,a4
    3f7c:	02000713          	li	a4,32
    3f80:	40f709b3          	sub	s3,a4,a5
    3f84:	0af70e63          	beq	a4,a5,4040 <__moddi3+0x2c8>
    3f88:	01361a33          	sll	s4,a2,s3
    3f8c:	00f5d933          	srl	s2,a1,a5
    3f90:	010a5b93          	srli	s7,s4,0x10
    3f94:	00f557b3          	srl	a5,a0,a5
    3f98:	013595b3          	sll	a1,a1,s3
    3f9c:	00b7eab3          	or	s5,a5,a1
    3fa0:	01351433          	sll	s0,a0,s3
    3fa4:	000b8593          	mv	a1,s7
    3fa8:	010a1b13          	slli	s6,s4,0x10
    3fac:	00090513          	mv	a0,s2
    3fb0:	404000ef          	jal	43b4 <__hidden___udivsi3>
    3fb4:	010b5b13          	srli	s6,s6,0x10
    3fb8:	000b0593          	mv	a1,s6
    3fbc:	340000ef          	jal	42fc <__mulsi3>
    3fc0:	00050c13          	mv	s8,a0
    3fc4:	000b8593          	mv	a1,s7
    3fc8:	00090513          	mv	a0,s2
    3fcc:	430000ef          	jal	43fc <__umodsi3>
    3fd0:	01051513          	slli	a0,a0,0x10
    3fd4:	010ad713          	srli	a4,s5,0x10
    3fd8:	00a76733          	or	a4,a4,a0
    3fdc:	01877a63          	bgeu	a4,s8,3ff0 <__moddi3+0x278>
    3fe0:	00ea0733          	add	a4,s4,a4
    3fe4:	01476663          	bltu	a4,s4,3ff0 <__moddi3+0x278>
    3fe8:	01877463          	bgeu	a4,s8,3ff0 <__moddi3+0x278>
    3fec:	01470733          	add	a4,a4,s4
    3ff0:	41870c33          	sub	s8,a4,s8
    3ff4:	000b8593          	mv	a1,s7
    3ff8:	000c0513          	mv	a0,s8
    3ffc:	3b8000ef          	jal	43b4 <__hidden___udivsi3>
    4000:	000b0593          	mv	a1,s6
    4004:	2f8000ef          	jal	42fc <__mulsi3>
    4008:	00050b13          	mv	s6,a0
    400c:	000b8593          	mv	a1,s7
    4010:	000c0513          	mv	a0,s8
    4014:	3e8000ef          	jal	43fc <__umodsi3>
    4018:	010a9793          	slli	a5,s5,0x10
    401c:	01051513          	slli	a0,a0,0x10
    4020:	0107d793          	srli	a5,a5,0x10
    4024:	00a7e7b3          	or	a5,a5,a0
    4028:	0167fa63          	bgeu	a5,s6,403c <__moddi3+0x2c4>
    402c:	00fa07b3          	add	a5,s4,a5
    4030:	0147e663          	bltu	a5,s4,403c <__moddi3+0x2c4>
    4034:	0167f463          	bgeu	a5,s6,403c <__moddi3+0x2c4>
    4038:	014787b3          	add	a5,a5,s4
    403c:	41678933          	sub	s2,a5,s6
    4040:	010a5b13          	srli	s6,s4,0x10
    4044:	000b0593          	mv	a1,s6
    4048:	010a1b93          	slli	s7,s4,0x10
    404c:	00090513          	mv	a0,s2
    4050:	364000ef          	jal	43b4 <__hidden___udivsi3>
    4054:	010bdb93          	srli	s7,s7,0x10
    4058:	000b8593          	mv	a1,s7
    405c:	2a0000ef          	jal	42fc <__mulsi3>
    4060:	00050a93          	mv	s5,a0
    4064:	000b0593          	mv	a1,s6
    4068:	00090513          	mv	a0,s2
    406c:	390000ef          	jal	43fc <__umodsi3>
    4070:	01051513          	slli	a0,a0,0x10
    4074:	01045793          	srli	a5,s0,0x10
    4078:	00a7e7b3          	or	a5,a5,a0
    407c:	0157fa63          	bgeu	a5,s5,4090 <__moddi3+0x318>
    4080:	00fa07b3          	add	a5,s4,a5
    4084:	0147e663          	bltu	a5,s4,4090 <__moddi3+0x318>
    4088:	0157f463          	bgeu	a5,s5,4090 <__moddi3+0x318>
    408c:	014787b3          	add	a5,a5,s4
    4090:	41578933          	sub	s2,a5,s5
    4094:	000b0593          	mv	a1,s6
    4098:	00090513          	mv	a0,s2
    409c:	318000ef          	jal	43b4 <__hidden___udivsi3>
    40a0:	000b8593          	mv	a1,s7
    40a4:	258000ef          	jal	42fc <__mulsi3>
    40a8:	00050a93          	mv	s5,a0
    40ac:	000b0593          	mv	a1,s6
    40b0:	e01ff06f          	j	3eb0 <__moddi3+0x138>
    40b4:	010006b7          	lui	a3,0x1000
    40b8:	01800713          	li	a4,24
    40bc:	ead676e3          	bgeu	a2,a3,3f68 <__moddi3+0x1f0>
    40c0:	01000713          	li	a4,16
    40c4:	ea5ff06f          	j	3f68 <__moddi3+0x1f0>
    40c8:	e2d5e0e3          	bltu	a1,a3,3ee8 <__moddi3+0x170>
    40cc:	000107b7          	lui	a5,0x10
    40d0:	04f6fe63          	bgeu	a3,a5,412c <__moddi3+0x3b4>
    40d4:	1006b793          	sltiu	a5,a3,256
    40d8:	0017b793          	seqz	a5,a5
    40dc:	00379793          	slli	a5,a5,0x3
    40e0:	00020737          	lui	a4,0x20
    40e4:	00f6d833          	srl	a6,a3,a5
    40e8:	26870713          	addi	a4,a4,616 # 20268 <__clz_tab>
    40ec:	01070733          	add	a4,a4,a6
    40f0:	00074a83          	lbu	s5,0(a4)
    40f4:	00fa8ab3          	add	s5,s5,a5
    40f8:	02000793          	li	a5,32
    40fc:	41578a33          	sub	s4,a5,s5
    4100:	05579063          	bne	a5,s5,4140 <__moddi3+0x3c8>
    4104:	00b6e463          	bltu	a3,a1,410c <__moddi3+0x394>
    4108:	00c56c63          	bltu	a0,a2,4120 <__moddi3+0x3a8>
    410c:	40c50933          	sub	s2,a0,a2
    4110:	40d586b3          	sub	a3,a1,a3
    4114:	012535b3          	sltu	a1,a0,s2
    4118:	00090413          	mv	s0,s2
    411c:	40b68b33          	sub	s6,a3,a1
    4120:	00040513          	mv	a0,s0
    4124:	000b0593          	mv	a1,s6
    4128:	dc1ff06f          	j	3ee8 <__moddi3+0x170>
    412c:	01000737          	lui	a4,0x1000
    4130:	01800793          	li	a5,24
    4134:	fae6f6e3          	bgeu	a3,a4,40e0 <__moddi3+0x368>
    4138:	01000793          	li	a5,16
    413c:	fa5ff06f          	j	40e0 <__moddi3+0x368>
    4140:	014696b3          	sll	a3,a3,s4
    4144:	01565b33          	srl	s6,a2,s5
    4148:	00db6b33          	or	s6,s6,a3
    414c:	0155dcb3          	srl	s9,a1,s5
    4150:	01555433          	srl	s0,a0,s5
    4154:	014595b3          	sll	a1,a1,s4
    4158:	010b5b93          	srli	s7,s6,0x10
    415c:	00b46433          	or	s0,s0,a1
    4160:	014519b3          	sll	s3,a0,s4
    4164:	000b8593          	mv	a1,s7
    4168:	000c8513          	mv	a0,s9
    416c:	010b1c13          	slli	s8,s6,0x10
    4170:	01461933          	sll	s2,a2,s4
    4174:	010c5c13          	srli	s8,s8,0x10
    4178:	23c000ef          	jal	43b4 <__hidden___udivsi3>
    417c:	00050593          	mv	a1,a0
    4180:	00050d93          	mv	s11,a0
    4184:	000c0513          	mv	a0,s8
    4188:	174000ef          	jal	42fc <__mulsi3>
    418c:	00050d13          	mv	s10,a0
    4190:	000b8593          	mv	a1,s7
    4194:	000c8513          	mv	a0,s9
    4198:	264000ef          	jal	43fc <__umodsi3>
    419c:	01051513          	slli	a0,a0,0x10
    41a0:	01045793          	srli	a5,s0,0x10
    41a4:	00a7e7b3          	or	a5,a5,a0
    41a8:	000d8c93          	mv	s9,s11
    41ac:	01a7fe63          	bgeu	a5,s10,41c8 <__moddi3+0x450>
    41b0:	00fb07b3          	add	a5,s6,a5
    41b4:	fffd8c93          	addi	s9,s11,-1
    41b8:	0167e863          	bltu	a5,s6,41c8 <__moddi3+0x450>
    41bc:	01a7f663          	bgeu	a5,s10,41c8 <__moddi3+0x450>
    41c0:	ffed8c93          	addi	s9,s11,-2
    41c4:	016787b3          	add	a5,a5,s6
    41c8:	41a78d33          	sub	s10,a5,s10
    41cc:	000b8593          	mv	a1,s7
    41d0:	000d0513          	mv	a0,s10
    41d4:	1e0000ef          	jal	43b4 <__hidden___udivsi3>
    41d8:	00050593          	mv	a1,a0
    41dc:	00050d93          	mv	s11,a0
    41e0:	000c0513          	mv	a0,s8
    41e4:	118000ef          	jal	42fc <__mulsi3>
    41e8:	000b8593          	mv	a1,s7
    41ec:	00050c13          	mv	s8,a0
    41f0:	000d0513          	mv	a0,s10
    41f4:	208000ef          	jal	43fc <__umodsi3>
    41f8:	01041593          	slli	a1,s0,0x10
    41fc:	01051513          	slli	a0,a0,0x10
    4200:	0105d593          	srli	a1,a1,0x10
    4204:	00a5e5b3          	or	a1,a1,a0
    4208:	000d8793          	mv	a5,s11
    420c:	0185fe63          	bgeu	a1,s8,4228 <__moddi3+0x4b0>
    4210:	00bb05b3          	add	a1,s6,a1
    4214:	fffd8793          	addi	a5,s11,-1
    4218:	0165e863          	bltu	a1,s6,4228 <__moddi3+0x4b0>
    421c:	0185f663          	bgeu	a1,s8,4228 <__moddi3+0x4b0>
    4220:	ffed8793          	addi	a5,s11,-2
    4224:	016585b3          	add	a1,a1,s6
    4228:	010c9c93          	slli	s9,s9,0x10
    422c:	00fcecb3          	or	s9,s9,a5
    4230:	01091313          	slli	t1,s2,0x10
    4234:	01079793          	slli	a5,a5,0x10
    4238:	0107d793          	srli	a5,a5,0x10
    423c:	01035313          	srli	t1,t1,0x10
    4240:	41858733          	sub	a4,a1,s8
    4244:	010cdc93          	srli	s9,s9,0x10
    4248:	01095893          	srli	a7,s2,0x10
    424c:	00078513          	mv	a0,a5
    4250:	00030593          	mv	a1,t1
    4254:	0a8000ef          	jal	42fc <__mulsi3>
    4258:	00050813          	mv	a6,a0
    425c:	00088593          	mv	a1,a7
    4260:	00078513          	mv	a0,a5
    4264:	098000ef          	jal	42fc <__mulsi3>
    4268:	00050413          	mv	s0,a0
    426c:	00030593          	mv	a1,t1
    4270:	000c8513          	mv	a0,s9
    4274:	088000ef          	jal	42fc <__mulsi3>
    4278:	00050793          	mv	a5,a0
    427c:	00088593          	mv	a1,a7
    4280:	000c8513          	mv	a0,s9
    4284:	078000ef          	jal	42fc <__mulsi3>
    4288:	00f40433          	add	s0,s0,a5
    428c:	01085693          	srli	a3,a6,0x10
    4290:	00d40433          	add	s0,s0,a3
    4294:	00f47663          	bgeu	s0,a5,42a0 <__moddi3+0x528>
    4298:	000107b7          	lui	a5,0x10
    429c:	00f50533          	add	a0,a0,a5
    42a0:	01045793          	srli	a5,s0,0x10
    42a4:	01081813          	slli	a6,a6,0x10
    42a8:	01041413          	slli	s0,s0,0x10
    42ac:	01085813          	srli	a6,a6,0x10
    42b0:	00a787b3          	add	a5,a5,a0
    42b4:	01040433          	add	s0,s0,a6
    42b8:	00f76663          	bltu	a4,a5,42c4 <__moddi3+0x54c>
    42bc:	00f71e63          	bne	a4,a5,42d8 <__moddi3+0x560>
    42c0:	0089fc63          	bgeu	s3,s0,42d8 <__moddi3+0x560>
    42c4:	41240933          	sub	s2,s0,s2
    42c8:	012436b3          	sltu	a3,s0,s2
    42cc:	016686b3          	add	a3,a3,s6
    42d0:	00090413          	mv	s0,s2
    42d4:	40d787b3          	sub	a5,a5,a3
    42d8:	40898433          	sub	s0,s3,s0
    42dc:	0089b9b3          	sltu	s3,s3,s0
    42e0:	40f705b3          	sub	a1,a4,a5
    42e4:	413585b3          	sub	a1,a1,s3
    42e8:	01559ab3          	sll	s5,a1,s5
    42ec:	01445433          	srl	s0,s0,s4
    42f0:	008ae533          	or	a0,s5,s0
    42f4:	0145d5b3          	srl	a1,a1,s4
    42f8:	bf1ff06f          	j	3ee8 <__moddi3+0x170>

000042fc <__mulsi3>:
    42fc:	00050613          	mv	a2,a0
    4300:	00000513          	li	a0,0
    4304:	0015f693          	andi	a3,a1,1
    4308:	00068463          	beqz	a3,4310 <__mulsi3+0x14>
    430c:	00c50533          	add	a0,a0,a2
    4310:	0015d593          	srli	a1,a1,0x1
    4314:	00161613          	slli	a2,a2,0x1
    4318:	fe0596e3          	bnez	a1,4304 <__mulsi3+0x8>
    431c:	00008067          	ret

00004320 <__muldi3>:
    4320:	00050e13          	mv	t3,a0
    4324:	ff010113          	addi	sp,sp,-16
    4328:	00068313          	mv	t1,a3
    432c:	00112623          	sw	ra,12(sp)
    4330:	00060513          	mv	a0,a2
    4334:	000e0893          	mv	a7,t3
    4338:	00060693          	mv	a3,a2
    433c:	00000713          	li	a4,0
    4340:	00000793          	li	a5,0
    4344:	00000813          	li	a6,0
    4348:	0016fe93          	andi	t4,a3,1
    434c:	00171613          	slli	a2,a4,0x1
    4350:	000e8a63          	beqz	t4,4364 <__muldi3+0x44>
    4354:	01088833          	add	a6,a7,a6
    4358:	00e787b3          	add	a5,a5,a4
    435c:	01183733          	sltu	a4,a6,a7
    4360:	00f707b3          	add	a5,a4,a5
    4364:	01f8d713          	srli	a4,a7,0x1f
    4368:	0016d693          	srli	a3,a3,0x1
    436c:	00e66733          	or	a4,a2,a4
    4370:	00189893          	slli	a7,a7,0x1
    4374:	fc069ae3          	bnez	a3,4348 <__muldi3+0x28>
    4378:	00058663          	beqz	a1,4384 <__muldi3+0x64>
    437c:	f81ff0ef          	jal	42fc <__mulsi3>
    4380:	00a787b3          	add	a5,a5,a0
    4384:	00030a63          	beqz	t1,4398 <__muldi3+0x78>
    4388:	000e0513          	mv	a0,t3
    438c:	00030593          	mv	a1,t1
    4390:	f6dff0ef          	jal	42fc <__mulsi3>
    4394:	00f507b3          	add	a5,a0,a5
    4398:	00c12083          	lw	ra,12(sp)
    439c:	00080513          	mv	a0,a6
    43a0:	00078593          	mv	a1,a5
    43a4:	01010113          	addi	sp,sp,16
    43a8:	00008067          	ret

000043ac <__divsi3>:
    43ac:	06054063          	bltz	a0,440c <__umodsi3+0x10>
    43b0:	0605c663          	bltz	a1,441c <__umodsi3+0x20>

000043b4 <__hidden___udivsi3>:
    43b4:	00058613          	mv	a2,a1
    43b8:	00050593          	mv	a1,a0
    43bc:	fff00513          	li	a0,-1
    43c0:	02060c63          	beqz	a2,43f8 <__hidden___udivsi3+0x44>
    43c4:	00100693          	li	a3,1
    43c8:	00b67a63          	bgeu	a2,a1,43dc <__hidden___udivsi3+0x28>
    43cc:	00c05863          	blez	a2,43dc <__hidden___udivsi3+0x28>
    43d0:	00161613          	slli	a2,a2,0x1
    43d4:	00169693          	slli	a3,a3,0x1
    43d8:	feb66ae3          	bltu	a2,a1,43cc <__hidden___udivsi3+0x18>
    43dc:	00000513          	li	a0,0
    43e0:	00c5e663          	bltu	a1,a2,43ec <__hidden___udivsi3+0x38>
    43e4:	40c585b3          	sub	a1,a1,a2
    43e8:	00d56533          	or	a0,a0,a3
    43ec:	0016d693          	srli	a3,a3,0x1
    43f0:	00165613          	srli	a2,a2,0x1
    43f4:	fe0696e3          	bnez	a3,43e0 <__hidden___udivsi3+0x2c>
    43f8:	00008067          	ret

000043fc <__umodsi3>:
    43fc:	00008293          	mv	t0,ra
    4400:	fb5ff0ef          	jal	43b4 <__hidden___udivsi3>
    4404:	00058513          	mv	a0,a1
    4408:	00028067          	jr	t0
    440c:	40a00533          	neg	a0,a0
    4410:	00b04863          	bgtz	a1,4420 <__umodsi3+0x24>
    4414:	40b005b3          	neg	a1,a1
    4418:	f9dff06f          	j	43b4 <__hidden___udivsi3>
    441c:	40b005b3          	neg	a1,a1
    4420:	00008293          	mv	t0,ra
    4424:	f91ff0ef          	jal	43b4 <__hidden___udivsi3>
    4428:	40a00533          	neg	a0,a0
    442c:	00028067          	jr	t0

00004430 <__modsi3>:
    4430:	00008293          	mv	t0,ra
    4434:	0005ca63          	bltz	a1,4448 <__modsi3+0x18>
    4438:	00054c63          	bltz	a0,4450 <__modsi3+0x20>
    443c:	f79ff0ef          	jal	43b4 <__hidden___udivsi3>
    4440:	00058513          	mv	a0,a1
    4444:	00028067          	jr	t0
    4448:	40b005b3          	neg	a1,a1
    444c:	fe0558e3          	bgez	a0,443c <__modsi3+0xc>
    4450:	40a00533          	neg	a0,a0
    4454:	f61ff0ef          	jal	43b4 <__hidden___udivsi3>
    4458:	40b00533          	neg	a0,a1
    445c:	00028067          	jr	t0
